---
triple:          'arm64-apple-darwin'
binary-path:     '/Users/varvbar/projects/practicum/sprint5/T3/Exer6/main'
relocations:
  - { offsetInCU: 0x14A0, offset: 0x14A0, size: 0x8, addend: 0x0, symName: __ZNSt3__14__fs10filesystem5beginB8ue170006ENS1_18directory_iteratorE, symObjAddr: 0x7AC, symBinAddr: 0x100002284, symSize: 0x38 }
  - { offsetInCU: 0x14CD, offset: 0x14CD, size: 0x8, addend: 0x0, symName: __ZNSt3__14__fs10filesystem3endB8ue170006ENS1_18directory_iteratorE, symObjAddr: 0x844, symBinAddr: 0x10000231C, symSize: 0x34 }
  - { offsetInCU: 0x14F6, offset: 0x14F6, size: 0x8, addend: 0x0, symName: __ZNSt3__14__fs10filesystemneB8ue170006ERKNS1_18directory_iteratorES4_, symObjAddr: 0x878, symBinAddr: 0x100002350, symSize: 0x34 }
  - { offsetInCU: 0x1530, offset: 0x1530, size: 0x8, addend: 0x0, symName: __ZNSt3__14__fs10filesystem6statusB8ue170006ERKNS1_4pathE, symObjAddr: 0xC24, symBinAddr: 0x1000026FC, symSize: 0x30 }
  - { offsetInCU: 0x155C, offset: 0x155C, size: 0x8, addend: 0x0, symName: __ZNSt3__14__fs10filesystem10remove_allB8ue170006ERKNS1_4pathERNS_10error_codeE, symObjAddr: 0x1354, symBinAddr: 0x100002E2C, symSize: 0x2C }
  - { offsetInCU: 0x1596, offset: 0x1596, size: 0x8, addend: 0x0, symName: __ZNSt3__14__fs10filesystem18create_directoriesB8ue170006ERKNS1_4pathERNS_10error_codeE, symObjAddr: 0x13BC, symBinAddr: 0x100002E94, symSize: 0x30 }
  - { offsetInCU: 0x15D0, offset: 0x15D0, size: 0x8, addend: 0x0, symName: __ZNSt3__14__fs10filesystemdvB8ue170006ERKNS1_4pathES4_, symObjAddr: 0x13EC, symBinAddr: 0x100002EC4, symSize: 0xA8 }
  - { offsetInCU: 0x161D, offset: 0x161D, size: 0x8, addend: 0x0, symName: __ZNSt3__14__fs10filesystemeqB8ue170006ERKNS1_18directory_iteratorES4_, symObjAddr: 0x1FD8, symBinAddr: 0x100003AB0, symSize: 0x30 }
  - { offsetInCU: 0x1657, offset: 0x1657, size: 0x8, addend: 0x0, symName: __ZNSt3__14__fs10filesystem6existsB8ue170006ENS1_11file_statusE, symObjAddr: 0x2328, symBinAddr: 0x100003E00, symSize: 0x78 }
  - { offsetInCU: 0x1684, offset: 0x1684, size: 0x8, addend: 0x0, symName: __ZNSt3__14__fs10filesystem12status_knownB8ue170006ENS1_11file_statusE, symObjAddr: 0x2414, symBinAddr: 0x100003EEC, symSize: 0x30 }
  - { offsetInCU: 0x1719, offset: 0x1719, size: 0x8, addend: 0x0, symName: __ZNSt3__14__fs10filesystemgtB8ue170006ERKNS1_4pathES4_, symObjAddr: 0x7A10, symBinAddr: 0x1000094E8, symSize: 0x68 }
  - { offsetInCU: 0x1756, offset: 0x1756, size: 0x8, addend: 0x0, symName: __ZNSt3__14__fs10filesystem4swapB8ue170006ERNS1_4pathES3_, symObjAddr: 0x7BCC, symBinAddr: 0x1000096A4, symSize: 0x2C }
  - { offsetInCU: 0xED5D, offset: 0xED5D, size: 0x8, addend: 0x0, symName: __ZNSt3__124__put_character_sequenceB8ue170006IcNS_11char_traitsIcEEEERNS_13basic_ostreamIT_T0_EES7_PKS4_m, symObjAddr: 0x43E8, symBinAddr: 0x100005EC0, symSize: 0x1EC }
  - { offsetInCU: 0xF427, offset: 0xF427, size: 0x8, addend: 0x0, symName: '__ZNSt3__111__introsortINS_17_ClassicAlgPolicyERZ9PrintTreeRNS_13basic_ostreamIcNS_11char_traitsIcEEEERKNS_4__fs10filesystem4pathERKNS8_11file_statusEiE3$_0PNS_4pairIS9_SC_EELb0EEEvT1_SK_T0_NS_15iterator_traitsISK_E15difference_typeEb', symObjAddr: 0x6390, symBinAddr: 0x100007E68, symSize: 0x434 }
  - { offsetInCU: 0xF552, offset: 0xF552, size: 0x8, addend: 0x0, symName: '__ZNSt3__126__insertion_sort_unguardedB8ue170006INS_17_ClassicAlgPolicyERZ9PrintTreeRNS_13basic_ostreamIcNS_11char_traitsIcEEEERKNS_4__fs10filesystem4pathERKNS8_11file_statusEiE3$_0PNS_4pairIS9_SC_EEEEvT1_SK_T0_', symObjAddr: 0x6B08, symBinAddr: 0x1000085E0, symSize: 0x158 }
  - { offsetInCU: 0xF62A, offset: 0xF62A, size: 0x8, addend: 0x0, symName: '__ZNSt3__111__sift_downB8ue170006INS_17_ClassicAlgPolicyERZ9PrintTreeRNS_13basic_ostreamIcNS_11char_traitsIcEEEERKNS_4__fs10filesystem4pathERKNS8_11file_statusEiE3$_0PNS_4pairIS9_SC_EEEEvT1_OT0_NS_15iterator_traitsISK_E15difference_typeESK_', symObjAddr: 0x8374, symBinAddr: 0x100009E4C, symSize: 0x244 }
  - { offsetInCU: 0xF6D7, offset: 0xF6D7, size: 0x8, addend: 0x0, symName: '__ZNSt3__117__floyd_sift_downB8ue170006INS_17_ClassicAlgPolicyERZ9PrintTreeRNS_13basic_ostreamIcNS_11char_traitsIcEEEERKNS_4__fs10filesystem4pathERKNS8_11file_statusEiE3$_0PNS_4pairIS9_SC_EEEET1_SK_OT0_NS_15iterator_traitsISK_E15difference_typeE', symObjAddr: 0x8798, symBinAddr: 0x10000A270, symSize: 0x100 }
  - { offsetInCU: 0xF76F, offset: 0xF76F, size: 0x8, addend: 0x0, symName: '__ZNSt3__131__partition_with_equals_on_leftB8ue170006INS_17_ClassicAlgPolicyEPNS_4pairINS_4__fs10filesystem4pathENS4_11file_statusEEERZ9PrintTreeRNS_13basic_ostreamIcNS_11char_traitsIcEEEERKS5_RKS6_iE3$_0EET0_SK_SK_T1_', symObjAddr: 0x6E6C, symBinAddr: 0x100008944, symSize: 0x250 }
  - { offsetInCU: 0xF82C, offset: 0xF82C, size: 0x8, addend: 0x0, symName: '__ZNSt3__118__bitset_partitionB8ue170006INS_17_ClassicAlgPolicyEPNS_4pairINS_4__fs10filesystem4pathENS4_11file_statusEEERZ9PrintTreeRNS_13basic_ostreamIcNS_11char_traitsIcEEEERKS5_RKS6_iE3$_0EENS2_IT0_bEESK_SK_T1_', symObjAddr: 0x70BC, symBinAddr: 0x100008B94, symSize: 0x37C }
  - { offsetInCU: 0xF928, offset: 0xF928, size: 0x8, addend: 0x0, symName: __ZNSt3__124__swap_bitmap_pos_withinB8ue170006INS_17_ClassicAlgPolicyEPNS_4pairINS_4__fs10filesystem4pathENS4_11file_statusEEEEEvRT0_SA_RySB_, symObjAddr: 0x8F1C, symBinAddr: 0x10000A9F4, symSize: 0x1E0 }
  - { offsetInCU: 0xF9F5, offset: 0xF9F5, size: 0x8, addend: 0x0, symName: '__ZNSt3__132__partition_with_equals_on_rightB8ue170006INS_17_ClassicAlgPolicyEPNS_4pairINS_4__fs10filesystem4pathENS4_11file_statusEEERZ9PrintTreeRNS_13basic_ostreamIcNS_11char_traitsIcEEEERKS5_RKS6_iE3$_0EENS2_IT0_bEESK_SK_T1_', symObjAddr: 0x7438, symBinAddr: 0x100008F10, symSize: 0x260 }
  - { offsetInCU: 0xFABF, offset: 0xFABF, size: 0x8, addend: 0x0, symName: '__ZNSt3__127__insertion_sort_incompleteB8ue170006INS_17_ClassicAlgPolicyERZ9PrintTreeRNS_13basic_ostreamIcNS_11char_traitsIcEEEERKNS_4__fs10filesystem4pathERKNS8_11file_statusEiE3$_0PNS_4pairIS9_SC_EEEEbT1_SK_T0_', symObjAddr: 0x7698, symBinAddr: 0x100009170, symSize: 0x360 }
  - { offsetInCU: 0x104EE, offset: 0x104EE, size: 0x8, addend: 0x0, symName: __ZNSt3__18literals15string_literalsli1sB8ue170006EPKcm, symObjAddr: 0x1780, symBinAddr: 0x100003258, symSize: 0x40 }
  - { offsetInCU: 0x10AD1, offset: 0x10AD1, size: 0x8, addend: 0x0, symName: __ZNSt3__1lsB8ue170006IcNS_11char_traitsIcEENS_9allocatorIcEEEERNS_13basic_ostreamIT_T0_EES9_RKNS_12basic_stringIS6_S7_T1_EE, symObjAddr: 0x5A0, symBinAddr: 0x100002078, symSize: 0x4C }
  - { offsetInCU: 0x10B29, offset: 0x10B29, size: 0x8, addend: 0x0, symName: __ZNSt3__14endlB8ue170006IcNS_11char_traitsIcEEEERNS_13basic_ostreamIT_T0_EES7_, symObjAddr: 0x6EC, symBinAddr: 0x1000021C4, symSize: 0x58 }
  - { offsetInCU: 0x10B69, offset: 0x10B69, size: 0x8, addend: 0x0, symName: '__ZNSt3__14sortB8ue170006INS_11__wrap_iterIPNS_4pairINS_4__fs10filesystem4pathENS4_11file_statusEEEEEZ9PrintTreeRNS_13basic_ostreamIcNS_11char_traitsIcEEEERKS5_RKS6_iE3$_0EEvT_SK_T0_', symObjAddr: 0xA3C, symBinAddr: 0x100002514, symSize: 0x40 }
  - { offsetInCU: 0x10BC3, offset: 0x10BC3, size: 0x8, addend: 0x0, symName: __ZNSt3__1neB8ue170006IPNS_4pairINS_4__fs10filesystem4pathENS3_11file_statusEEEEEbRKNS_11__wrap_iterIT_EESC_, symObjAddr: 0xADC, symBinAddr: 0x1000025B4, symSize: 0x34 }
  - { offsetInCU: 0x10F82, offset: 0x10F82, size: 0x8, addend: 0x0, symName: __ZNSt3__1eqB8ue170006INS_9allocatorIcEEEEbRKNS_12basic_stringIcNS_11char_traitsIcEET_EES9_, symObjAddr: 0x1608, symBinAddr: 0x1000030E0, symSize: 0x148 }
  - { offsetInCU: 0x11000, offset: 0x11000, size: 0x8, addend: 0x0, symName: __ZNSt3__134__libcpp_atomic_refcount_incrementB8ue170006IlEET_RS1_, symObjAddr: 0x1D74, symBinAddr: 0x10000384C, symSize: 0x30 }
  - { offsetInCU: 0x11035, offset: 0x11035, size: 0x8, addend: 0x0, symName: __ZNSt3__134__libcpp_atomic_refcount_decrementB8ue170006IlEET_RS1_, symObjAddr: 0x1F08, symBinAddr: 0x1000039E0, symSize: 0x30 }
  - { offsetInCU: 0x1106A, offset: 0x1106A, size: 0x8, addend: 0x0, symName: __ZNSt3__1eqB8ue170006INS_4__fs10filesystem12__dir_streamES3_EEbRKNS_10shared_ptrIT_EERKNS4_IT0_EE, symObjAddr: 0x2008, symBinAddr: 0x100003AE0, symSize: 0x48 }
  - { offsetInCU: 0x110B9, offset: 0x110B9, size: 0x8, addend: 0x0, symName: __ZNSt3__120__libcpp_unreachableB8ue170006Ev, symObjAddr: 0x2324, symBinAddr: 0x100003DFC, symSize: 0x4 }
  - { offsetInCU: 0x110D2, offset: 0x110D2, size: 0x8, addend: 0x0, symName: __ZNSt3__115make_error_codeB8ue170006ENS_4errcE, symObjAddr: 0x23A0, symBinAddr: 0x100003E78, symSize: 0x40 }
  - { offsetInCU: 0x110FE, offset: 0x110FE, size: 0x8, addend: 0x0, symName: __ZNSt3__1eqB8ue170006IPNS_4pairINS_4__fs10filesystem4pathENS3_11file_statusEEEEEbRKNS_11__wrap_iterIT_EESC_, symObjAddr: 0x25D0, symBinAddr: 0x1000040A8, symSize: 0x48 }
  - { offsetInCU: 0x11141, offset: 0x11141, size: 0x8, addend: 0x0, symName: __ZNSt3__112__to_addressB8ue170006IKcEEPT_S3_, symObjAddr: 0x2904, symBinAddr: 0x1000043DC, symSize: 0x14 }
  - { offsetInCU: 0x111C5, offset: 0x111C5, size: 0x8, addend: 0x0, symName: __ZNSt3__18distanceB8ue170006IPKcEENS_15iterator_traitsIT_E15difference_typeES4_S4_, symObjAddr: 0x2FFC, symBinAddr: 0x100004AD4, symSize: 0x2C }
  - { offsetInCU: 0x11208, offset: 0x11208, size: 0x8, addend: 0x0, symName: __ZNSt3__110__distanceB8ue170006IPKcEENS_15iterator_traitsIT_E15difference_typeES4_S4_NS_26random_access_iterator_tagE, symObjAddr: 0x326C, symBinAddr: 0x100004D44, symSize: 0x20 }
  - { offsetInCU: 0x11255, offset: 0x11255, size: 0x8, addend: 0x0, symName: __ZNSt3__121__is_pointer_in_rangeB8ue170006IccLi0EEEbPKT_S3_PKT0_, symObjAddr: 0x328C, symBinAddr: 0x100004D64, symSize: 0x68 }
  - { offsetInCU: 0x1135E, offset: 0x1135E, size: 0x8, addend: 0x0, symName: __ZNSt3__119__allocate_at_leastB8ue170006INS_9allocatorIcEEEENS_19__allocation_resultINS_16allocator_traitsIT_E7pointerEEERS5_m, symObjAddr: 0x37D8, symBinAddr: 0x1000052B0, symSize: 0x40 }
  - { offsetInCU: 0x1158D, offset: 0x1158D, size: 0x8, addend: 0x0, symName: __ZNSt3__120__throw_length_errorB8ue170006EPKc, symObjAddr: 0x3A08, symBinAddr: 0x1000054E0, symSize: 0x64 }
  - { offsetInCU: 0x115B7, offset: 0x115B7, size: 0x8, addend: 0x0, symName: __ZNSt3__117__libcpp_allocateB8ue170006Emm, symObjAddr: 0x3B78, symBinAddr: 0x100005650, symSize: 0x60 }
  - { offsetInCU: 0x11611, offset: 0x11611, size: 0x8, addend: 0x0, symName: __ZNSt3__124__is_overaligned_for_newB8ue170006Em, symObjAddr: 0x3BD8, symBinAddr: 0x1000056B0, symSize: 0x20 }
  - { offsetInCU: 0x1163F, offset: 0x1163F, size: 0x8, addend: 0x0, symName: __ZNSt3__121__libcpp_operator_newB8ue170006IJmSt11align_val_tEEEPvDpT_, symObjAddr: 0x3BF8, symBinAddr: 0x1000056D0, symSize: 0x2C }
  - { offsetInCU: 0x1168C, offset: 0x1168C, size: 0x8, addend: 0x0, symName: __ZNSt3__121__libcpp_operator_newB8ue170006IJmEEEPvDpT_, symObjAddr: 0x3C24, symBinAddr: 0x1000056FC, symSize: 0x24 }
  - { offsetInCU: 0x116C5, offset: 0x116C5, size: 0x8, addend: 0x0, symName: __ZNSt3__112__to_addressB8ue170006INS_4pairINS_4__fs10filesystem4pathENS3_11file_statusEEEEEPT_S8_, symObjAddr: 0x4110, symBinAddr: 0x100005BE8, symSize: 0x14 }
  - { offsetInCU: 0x116FA, offset: 0x116FA, size: 0x8, addend: 0x0, symName: __ZNSt3__119__libcpp_deallocateB8ue170006EPvmm, symObjAddr: 0x41FC, symBinAddr: 0x100005CD4, symSize: 0x60 }
  - { offsetInCU: 0x1175F, offset: 0x1175F, size: 0x8, addend: 0x0, symName: __ZNSt3__127__do_deallocate_handle_sizeB8ue170006IJSt11align_val_tEEEvPvmDpT_, symObjAddr: 0x425C, symBinAddr: 0x100005D34, symSize: 0x30 }
  - { offsetInCU: 0x117B2, offset: 0x117B2, size: 0x8, addend: 0x0, symName: __ZNSt3__127__do_deallocate_handle_sizeB8ue170006IJEEEvPvmDpT_, symObjAddr: 0x428C, symBinAddr: 0x100005D64, symSize: 0x28 }
  - { offsetInCU: 0x117F0, offset: 0x117F0, size: 0x8, addend: 0x0, symName: __ZNSt3__124__libcpp_operator_deleteB8ue170006IJPvSt11align_val_tEEEvDpT_, symObjAddr: 0x42B4, symBinAddr: 0x100005D8C, symSize: 0x2C }
  - { offsetInCU: 0x11839, offset: 0x11839, size: 0x8, addend: 0x0, symName: __ZNSt3__124__libcpp_operator_deleteB8ue170006IJPvEEEvDpT_, symObjAddr: 0x42E0, symBinAddr: 0x100005DB8, symSize: 0x24 }
  - { offsetInCU: 0x1186E, offset: 0x1186E, size: 0x8, addend: 0x0, symName: __ZNSt3__116__pad_and_outputB8ue170006IcNS_11char_traitsIcEEEENS_19ostreambuf_iteratorIT_T0_EES6_PKS4_S8_S8_RNS_8ios_baseES4_, symObjAddr: 0x45F0, symBinAddr: 0x1000060C8, symSize: 0x240 }
  - { offsetInCU: 0x1193D, offset: 0x1193D, size: 0x8, addend: 0x0, symName: __ZNSt3__112__to_addressB8ue170006IcEEPT_S2_, symObjAddr: 0x49D8, symBinAddr: 0x1000064B0, symSize: 0x14 }
  - { offsetInCU: 0x11972, offset: 0x11972, size: 0x8, addend: 0x0, symName: __ZNSt3__19use_facetB8ue170006INS_5ctypeIcEEEERKT_RKNS_6localeE, symObjAddr: 0x4B30, symBinAddr: 0x100006608, symSize: 0x2C }
  - { offsetInCU: 0x11E3F, offset: 0x11E3F, size: 0x8, addend: 0x0, symName: __ZNSt3__13maxB8ue170006ImEERKT_S3_S3_, symObjAddr: 0x524C, symBinAddr: 0x100006D24, symSize: 0x2C }
  - { offsetInCU: 0x11E82, offset: 0x11E82, size: 0x8, addend: 0x0, symName: __ZNSt3__13minB8ue170006ImEERKT_S3_S3_, symObjAddr: 0x5278, symBinAddr: 0x100006D50, symSize: 0x2C }
  - { offsetInCU: 0x120AF, offset: 0x120AF, size: 0x8, addend: 0x0, symName: __ZNSt3__13minB8ue170006ImNS_6__lessIvvEEEERKT_S5_S5_T0_, symObjAddr: 0x5304, symBinAddr: 0x100006DDC, symSize: 0x54 }
  - { offsetInCU: 0x12109, offset: 0x12109, size: 0x8, addend: 0x0, symName: __ZNSt3__13maxB8ue170006ImNS_6__lessIvvEEEERKT_S5_S5_T0_, symObjAddr: 0x53E0, symBinAddr: 0x100006EB8, symSize: 0x54 }
  - { offsetInCU: 0x12163, offset: 0x12163, size: 0x8, addend: 0x0, symName: __ZNSt3__119__allocate_at_leastB8ue170006INS_9allocatorINS_4pairINS_4__fs10filesystem4pathENS4_11file_statusEEEEEEENS_19__allocation_resultINS_16allocator_traitsIT_E7pointerEEERSB_m, symObjAddr: 0x5544, symBinAddr: 0x10000701C, symSize: 0x40 }
  - { offsetInCU: 0x121A6, offset: 0x121A6, size: 0x8, addend: 0x0, symName: __ZNSt3__142__uninitialized_allocator_move_if_noexceptB8ue170006INS_9allocatorINS_4pairINS_4__fs10filesystem4pathENS4_11file_statusEEEEENS_16reverse_iteratorIPS7_EESB_SB_EET2_RT_T0_T1_SC_, symObjAddr: 0x56F8, symBinAddr: 0x1000071D0, symSize: 0x12C }
  - { offsetInCU: 0x12246, offset: 0x12246, size: 0x8, addend: 0x0, symName: __ZNSt3__14swapB8ue170006IPNS_4pairINS_4__fs10filesystem4pathENS3_11file_statusEEEEENS_9enable_ifIXaasr21is_move_constructibleIT_EE5valuesr18is_move_assignableIS9_EE5valueEvE4typeERS9_SC_, symObjAddr: 0x5870, symBinAddr: 0x100007348, symSize: 0x3C }
  - { offsetInCU: 0x12297, offset: 0x12297, size: 0x8, addend: 0x0, symName: __ZNSt3__122__make_exception_guardB8ue170006INS_29_AllocatorDestroyRangeReverseINS_9allocatorINS_4pairINS_4__fs10filesystem4pathENS5_11file_statusEEEEENS_16reverse_iteratorIPS8_EEEEEENS_28__exception_guard_exceptionsIT_EESF_, symObjAddr: 0x5958, symBinAddr: 0x100007430, symSize: 0x4C }
  - { offsetInCU: 0x122CD, offset: 0x122CD, size: 0x8, addend: 0x0, symName: __ZNSt3__1neB8ue170006IPNS_4pairINS_4__fs10filesystem4pathENS3_11file_statusEEES7_EEbRKNS_16reverse_iteratorIT_EERKNS8_IT0_EE, symObjAddr: 0x59E8, symBinAddr: 0x1000074C0, symSize: 0x48 }
  - { offsetInCU: 0x12319, offset: 0x12319, size: 0x8, addend: 0x0, symName: __ZNSt3__112__to_addressB8ue170006INS_16reverse_iteratorIPNS_4pairINS_4__fs10filesystem4pathENS4_11file_statusEEEEEvEEu7__decayIDTclsr19__to_address_helperIT_EE6__callclsr3stdE7declvalIRKSA_EEEEESC_, symObjAddr: 0x5A30, symBinAddr: 0x100007508, symSize: 0x24 }
  - { offsetInCU: 0x12378, offset: 0x12378, size: 0x8, addend: 0x0, symName: __ZNSt3__119__allocator_destroyB8ue170006INS_9allocatorINS_4pairINS_4__fs10filesystem4pathENS4_11file_statusEEEEENS_16reverse_iteratorINS9_IPS7_EEEESC_EEvRT_T0_T1_, symObjAddr: 0x5CE0, symBinAddr: 0x1000077B8, symSize: 0x70 }
  - { offsetInCU: 0x123DD, offset: 0x123DD, size: 0x8, addend: 0x0, symName: __ZNSt3__1neB8ue170006INS_16reverse_iteratorIPNS_4pairINS_4__fs10filesystem4pathENS4_11file_statusEEEEES9_EEbRKNS1_IT_EERKNS1_IT0_EE, symObjAddr: 0x5D8C, symBinAddr: 0x100007864, symSize: 0x60 }
  - { offsetInCU: 0x12429, offset: 0x12429, size: 0x8, addend: 0x0, symName: __ZNSt3__112__to_addressB8ue170006INS_16reverse_iteratorINS1_IPNS_4pairINS_4__fs10filesystem4pathENS4_11file_statusEEEEEEEvEEu7__decayIDTclsr19__to_address_helperIT_EE6__callclsr3stdE7declvalIRKSB_EEEEESD_, symObjAddr: 0x5DEC, symBinAddr: 0x1000078C4, symSize: 0x24 }
  - { offsetInCU: 0x12488, offset: 0x12488, size: 0x8, addend: 0x0, symName: '__ZNSt3__111__sort_implB8ue170006INS_17_ClassicAlgPolicyENS_11__wrap_iterIPNS_4pairINS_4__fs10filesystem4pathENS5_11file_statusEEEEEZ9PrintTreeRNS_13basic_ostreamIcNS_11char_traitsIcEEEERKS6_RKS7_iE3$_0EEvT0_SL_RT1_', symObjAddr: 0x61D8, symBinAddr: 0x100007CB0, symSize: 0xA8 }
  - { offsetInCU: 0x124EC, offset: 0x124EC, size: 0x8, addend: 0x0, symName: __ZNSt3__123__debug_randomize_rangeB8ue170006INS_17_ClassicAlgPolicyENS_11__wrap_iterIPNS_4pairINS_4__fs10filesystem4pathENS5_11file_statusEEEEESA_EEvT0_T1_, symObjAddr: 0x6280, symBinAddr: 0x100007D58, symSize: 0x14 }
  - { offsetInCU: 0x1253C, offset: 0x1253C, size: 0x8, addend: 0x0, symName: '__ZNSt3__115__sort_dispatchB8ue170006INS_17_ClassicAlgPolicyEPNS_4pairINS_4__fs10filesystem4pathENS4_11file_statusEEEZ9PrintTreeRNS_13basic_ostreamIcNS_11char_traitsIcEEEERKS5_RKS6_iE3$_0EEvT0_SJ_RT1_', symObjAddr: 0x6294, symBinAddr: 0x100007D6C, symSize: 0x64 }
  - { offsetInCU: 0x125BA, offset: 0x125BA, size: 0x8, addend: 0x0, symName: __ZNSt3__113__unwrap_iterB8ue170006INS_11__wrap_iterIPNS_4pairINS_4__fs10filesystem4pathENS4_11file_statusEEEEENS_18__unwrap_iter_implIS9_Lb1EEELi0EEEDTclsrT0_8__unwrapclsr3stdE7declvalIT_EEEESD_, symObjAddr: 0x62F8, symBinAddr: 0x100007DD0, symSize: 0x2C }
  - { offsetInCU: 0x125FF, offset: 0x125FF, size: 0x8, addend: 0x0, symName: '__ZNSt3__135__check_strict_weak_ordering_sortedB8ue170006IPNS_4pairINS_4__fs10filesystem4pathENS3_11file_statusEEEZ9PrintTreeRNS_13basic_ostreamIcNS_11char_traitsIcEEEERKS4_RKS5_iE3$_0EEvT_SI_RT0_', symObjAddr: 0x6324, symBinAddr: 0x100007DFC, symSize: 0x18 }
  - { offsetInCU: 0x12654, offset: 0x12654, size: 0x8, addend: 0x0, symName: __ZNSt3__17__log2iB8ue170006IlEET_S1_, symObjAddr: 0x633C, symBinAddr: 0x100007E14, symSize: 0x54 }
  - { offsetInCU: 0x1268B, offset: 0x1268B, size: 0x8, addend: 0x0, symName: __ZNSt3__112__libcpp_clzB8ue170006Em, symObjAddr: 0x67DC, symBinAddr: 0x1000082B4, symSize: 0x1C }
  - { offsetInCU: 0x127A1, offset: 0x127A1, size: 0x8, addend: 0x0, symName: '__ZNSt3__124__sort3_maybe_branchlessB8ue170006INS_17_ClassicAlgPolicyERZ9PrintTreeRNS_13basic_ostreamIcNS_11char_traitsIcEEEERKNS_4__fs10filesystem4pathERKNS8_11file_statusEiE3$_0PNS_4pairIS9_SC_EEEENS_9enable_ifIXntsr21__use_branchless_sortIT0_T1_EE5valueEvE4typeESM_SM_SM_SL_', symObjAddr: 0x68B4, symBinAddr: 0x10000838C, symSize: 0x3C }
  - { offsetInCU: 0x12812, offset: 0x12812, size: 0x8, addend: 0x0, symName: '__ZNSt3__124__sort4_maybe_branchlessB8ue170006INS_17_ClassicAlgPolicyERZ9PrintTreeRNS_13basic_ostreamIcNS_11char_traitsIcEEEERKNS_4__fs10filesystem4pathERKNS8_11file_statusEiE3$_0PNS_4pairIS9_SC_EEEENS_9enable_ifIXntsr21__use_branchless_sortIT0_T1_EE5valueEvE4typeESM_SM_SM_SM_SL_', symObjAddr: 0x68F0, symBinAddr: 0x1000083C8, symSize: 0x44 }
  - { offsetInCU: 0x12891, offset: 0x12891, size: 0x8, addend: 0x0, symName: '__ZNSt3__124__sort5_maybe_branchlessB8ue170006INS_17_ClassicAlgPolicyERZ9PrintTreeRNS_13basic_ostreamIcNS_11char_traitsIcEEEERKNS_4__fs10filesystem4pathERKNS8_11file_statusEiE3$_0PNS_4pairIS9_SC_EEEENS_9enable_ifIXntsr21__use_branchless_sortIT0_T1_EE5valueEvE4typeESM_SM_SM_SM_SM_SL_', symObjAddr: 0x6934, symBinAddr: 0x10000840C, symSize: 0x4C }
  - { offsetInCU: 0x1291E, offset: 0x1291E, size: 0x8, addend: 0x0, symName: '__ZNSt3__116__insertion_sortB8ue170006INS_17_ClassicAlgPolicyERZ9PrintTreeRNS_13basic_ostreamIcNS_11char_traitsIcEEEERKNS_4__fs10filesystem4pathERKNS8_11file_statusEiE3$_0PNS_4pairIS9_SC_EEEEvT1_SK_T0_', symObjAddr: 0x6980, symBinAddr: 0x100008458, symSize: 0x188 }
  - { offsetInCU: 0x129D1, offset: 0x129D1, size: 0x8, addend: 0x0, symName: '__ZNSt3__114__partial_sortB8ue170006INS_17_ClassicAlgPolicyERZ9PrintTreeRNS_13basic_ostreamIcNS_11char_traitsIcEEEERKNS_4__fs10filesystem4pathERKNS8_11file_statusEiE3$_0PNS_4pairIS9_SC_EESJ_EET1_SK_SK_T2_RT0_', symObjAddr: 0x6C60, symBinAddr: 0x100008738, symSize: 0x94 }
  - { offsetInCU: 0x12A59, offset: 0x12A59, size: 0x8, addend: 0x0, symName: '__ZNSt3__17__sort3B8ue170006INS_17_ClassicAlgPolicyERZ9PrintTreeRNS_13basic_ostreamIcNS_11char_traitsIcEEEERKNS_4__fs10filesystem4pathERKNS8_11file_statusEiE3$_0PNS_4pairIS9_SC_EEEEjT1_SK_SK_T0_', symObjAddr: 0x6CF4, symBinAddr: 0x1000087CC, symSize: 0x144 }
  - { offsetInCU: 0x12AD9, offset: 0x12AD9, size: 0x8, addend: 0x0, symName: __ZNSt3__19iter_swapB8ue170006IPNS_4pairINS_4__fs10filesystem4pathENS3_11file_statusEEES7_EEvT_T0_, symObjAddr: 0x7B30, symBinAddr: 0x100009608, symSize: 0x2C }
  - { offsetInCU: 0x12B20, offset: 0x12B20, size: 0x8, addend: 0x0, symName: __ZNSt3__14swapB8ue170006INS_4__fs10filesystem4pathENS2_11file_statusEEENS_9enable_ifIXaasr14__is_swappableIT_EE5valuesr14__is_swappableIT0_EE5valueEvE4typeERNS_4pairIS6_S7_EESC_, symObjAddr: 0x7B5C, symBinAddr: 0x100009634, symSize: 0x2C }
  - { offsetInCU: 0x12B6F, offset: 0x12B6F, size: 0x8, addend: 0x0, symName: __ZNSt3__14swapB8ue170006INS_4__fs10filesystem11file_statusEEENS_9enable_ifIXaasr21is_move_constructibleIT_EE5valuesr18is_move_assignableIS5_EE5valueEvE4typeERS5_S8_, symObjAddr: 0x7BF8, symBinAddr: 0x1000096D0, symSize: 0x50 }
  - { offsetInCU: 0x12BC0, offset: 0x12BC0, size: 0x8, addend: 0x0, symName: __ZNSt3__14swapB8ue170006INS_12basic_stringIcNS_11char_traitsIcEENS_9allocatorIcEEE5__repEEENS_9enable_ifIXaasr21is_move_constructibleIT_EE5valuesr18is_move_assignableIS9_EE5valueEvE4typeERS9_SC_, symObjAddr: 0x7CD8, symBinAddr: 0x1000097B0, symSize: 0x54 }
  - { offsetInCU: 0x12C12, offset: 0x12C12, size: 0x8, addend: 0x0, symName: __ZNSt3__116__swap_allocatorB8ue170006INS_9allocatorIcEEEEvRT_S4_, symObjAddr: 0x7D2C, symBinAddr: 0x100009804, symSize: 0x2C }
  - { offsetInCU: 0x12C51, offset: 0x12C51, size: 0x8, addend: 0x0, symName: __ZNSt3__116__swap_allocatorB8ue170006INS_9allocatorIcEEEEvRT_S4_NS_17integral_constantIbLb0EEE, symObjAddr: 0x7D58, symBinAddr: 0x100009830, symSize: 0x14 }
  - { offsetInCU: 0x12C91, offset: 0x12C91, size: 0x8, addend: 0x0, symName: '__ZNSt3__17__sort4B8ue170006INS_17_ClassicAlgPolicyERZ9PrintTreeRNS_13basic_ostreamIcNS_11char_traitsIcEEEERKNS_4__fs10filesystem4pathERKNS8_11file_statusEiE3$_0PNS_4pairIS9_SC_EEEEvT1_SK_SK_SK_T0_', symObjAddr: 0x7D6C, symBinAddr: 0x100009844, symSize: 0xB8 }
  - { offsetInCU: 0x12D0C, offset: 0x12D0C, size: 0x8, addend: 0x0, symName: '__ZNSt3__17__sort5B8ue170006INS_17_ClassicAlgPolicyERZ9PrintTreeRNS_13basic_ostreamIcNS_11char_traitsIcEEEERKNS_4__fs10filesystem4pathERKNS8_11file_statusEiE3$_0PNS_4pairIS9_SC_EEEEvT1_SK_SK_SK_SK_T0_', symObjAddr: 0x7E24, symBinAddr: 0x1000098FC, symSize: 0xE8 }
  - { offsetInCU: 0x12DBA, offset: 0x12DBA, size: 0x8, addend: 0x0, symName: __ZNSt3__123__debug_randomize_rangeB8ue170006INS_17_ClassicAlgPolicyEPNS_4pairINS_4__fs10filesystem4pathENS4_11file_statusEEES8_EEvT0_T1_, symObjAddr: 0x8198, symBinAddr: 0x100009C70, symSize: 0x14 }
  - { offsetInCU: 0x12E0A, offset: 0x12E0A, size: 0x8, addend: 0x0, symName: '__ZNSt3__119__partial_sort_implB8ue170006INS_17_ClassicAlgPolicyERZ9PrintTreeRNS_13basic_ostreamIcNS_11char_traitsIcEEEERKNS_4__fs10filesystem4pathERKNS8_11file_statusEiE3$_0PNS_4pairIS9_SC_EESJ_EET1_SK_SK_T2_OT0_', symObjAddr: 0x81AC, symBinAddr: 0x100009C84, symSize: 0x110 }
  - { offsetInCU: 0x12EA0, offset: 0x12EA0, size: 0x8, addend: 0x0, symName: '__ZNSt3__111__make_heapB8ue170006INS_17_ClassicAlgPolicyERZ9PrintTreeRNS_13basic_ostreamIcNS_11char_traitsIcEEEERKNS_4__fs10filesystem4pathERKNS8_11file_statusEiE3$_0PNS_4pairIS9_SC_EEEEvT1_SK_OT0_', symObjAddr: 0x82BC, symBinAddr: 0x100009D94, symSize: 0xB8 }
  - { offsetInCU: 0x12F42, offset: 0x12F42, size: 0x8, addend: 0x0, symName: '__ZNSt3__111__sort_heapB8ue170006INS_17_ClassicAlgPolicyERZ9PrintTreeRNS_13basic_ostreamIcNS_11char_traitsIcEEEERKNS_4__fs10filesystem4pathERKNS8_11file_statusEiE3$_0PNS_4pairIS9_SC_EEEEvT1_SK_OT0_', symObjAddr: 0x85B8, symBinAddr: 0x10000A090, symSize: 0xA8 }
  - { offsetInCU: 0x12FE4, offset: 0x12FE4, size: 0x8, addend: 0x0, symName: '__ZNSt3__110__pop_heapB8ue170006INS_17_ClassicAlgPolicyEZ9PrintTreeRNS_13basic_ostreamIcNS_11char_traitsIcEEEERKNS_4__fs10filesystem4pathERKNS8_11file_statusEiE3$_0PNS_4pairIS9_SC_EEEEvT1_SJ_RT0_NS_15iterator_traitsISJ_E15difference_typeE', symObjAddr: 0x8660, symBinAddr: 0x10000A138, symSize: 0x138 }
  - { offsetInCU: 0x1308C, offset: 0x1308C, size: 0x8, addend: 0x0, symName: '__ZNSt3__19__sift_upB8ue170006INS_17_ClassicAlgPolicyERZ9PrintTreeRNS_13basic_ostreamIcNS_11char_traitsIcEEEERKNS_4__fs10filesystem4pathERKNS8_11file_statusEiE3$_0PNS_4pairIS9_SC_EEEEvT1_SK_OT0_NS_15iterator_traitsISK_E15difference_typeE', symObjAddr: 0x8898, symBinAddr: 0x10000A370, symSize: 0x154 }
  - { offsetInCU: 0x1312C, offset: 0x1312C, size: 0x8, addend: 0x0, symName: '__ZNSt3__122__populate_left_bitsetB8ue170006IRZ9PrintTreeRNS_13basic_ostreamIcNS_11char_traitsIcEEEERKNS_4__fs10filesystem4pathERKNS7_11file_statusEiE3$_0PNS_4pairIS8_SB_EESH_EEvT0_T_RT1_Ry', symObjAddr: 0x89EC, symBinAddr: 0x10000A4C4, symSize: 0xA8 }
  - { offsetInCU: 0x131E7, offset: 0x131E7, size: 0x8, addend: 0x0, symName: '__ZNSt3__123__populate_right_bitsetB8ue170006IRZ9PrintTreeRNS_13basic_ostreamIcNS_11char_traitsIcEEEERKNS_4__fs10filesystem4pathERKNS7_11file_statusEiE3$_0PNS_4pairIS8_SB_EESH_EEvT0_T_RT1_Ry', symObjAddr: 0x8A94, symBinAddr: 0x10000A56C, symSize: 0xA0 }
  - { offsetInCU: 0x132A2, offset: 0x132A2, size: 0x8, addend: 0x0, symName: __ZNSt3__117__swap_bitmap_posB8ue170006INS_17_ClassicAlgPolicyEPNS_4pairINS_4__fs10filesystem4pathENS4_11file_statusEEEEEvT0_S9_RySA_, symObjAddr: 0x8B34, symBinAddr: 0x10000A60C, symSize: 0x100 }
  - { offsetInCU: 0x13343, offset: 0x13343, size: 0x8, addend: 0x0, symName: '__ZNSt3__133__bitset_partition_partial_blocksB8ue170006INS_17_ClassicAlgPolicyERZ9PrintTreeRNS_13basic_ostreamIcNS_11char_traitsIcEEEERKNS_4__fs10filesystem4pathERKNS8_11file_statusEiE3$_0PNS_4pairIS9_SC_EESI_EEvRT1_SL_T0_RT2_RySP_', symObjAddr: 0x8C34, symBinAddr: 0x10000A70C, symSize: 0x2E8 }
  - { offsetInCU: 0x134C4, offset: 0x134C4, size: 0x8, addend: 0x0, symName: __ZNSt3__19make_pairB8ue170006IRPNS_4pairINS_4__fs10filesystem4pathENS3_11file_statusEEERbEENS1_INS_18__unwrap_ref_decayIT_E4typeENSA_IT0_E4typeEEEOSB_OSE_, symObjAddr: 0x90FC, symBinAddr: 0x10000ABD4, symSize: 0x38 }
  - { offsetInCU: 0x13513, offset: 0x13513, size: 0x8, addend: 0x0, symName: __ZNSt3__112__libcpp_ctzB8ue170006Ey, symObjAddr: 0x9134, symBinAddr: 0x10000AC0C, symSize: 0x20 }
  - { offsetInCU: 0x1353F, offset: 0x1353F, size: 0x8, addend: 0x0, symName: __ZNSt3__113__libcpp_blsrB8ue170006Ey, symObjAddr: 0x9154, symBinAddr: 0x10000AC2C, symSize: 0x2C }
  - { offsetInCU: 0x1356B, offset: 0x1356B, size: 0x8, addend: 0x0, symName: __ZNSt3__112__libcpp_clzB8ue170006Ey, symObjAddr: 0x91B4, symBinAddr: 0x10000AC8C, symSize: 0x1C }
  - { offsetInCU: 0x136BE, offset: 0x136BE, size: 0x8, addend: 0x0, symName: __ZNSt3__112__to_addressB8ue170006INS_11__wrap_iterIPNS_4pairINS_4__fs10filesystem4pathENS4_11file_statusEEEEEvEEu7__decayIDTclsr19__to_address_helperIT_EE6__callclsr3stdE7declvalIRKSA_EEEEESC_, symObjAddr: 0x926C, symBinAddr: 0x10000AD44, symSize: 0x24 }
  - { offsetInCU: 0x13DCB, offset: 0x13DCB, size: 0x8, addend: 0x0, symName: __ZSt28__throw_bad_array_new_lengthB8ue170006v, symObjAddr: 0x3B44, symBinAddr: 0x10000561C, symSize: 0x34 }
  - { offsetInCU: 0x14E25, offset: 0x14E25, size: 0x8, addend: 0x0, symName: __ZNSt3__16vectorINS_4pairINS_4__fs10filesystem4pathENS3_11file_statusEEENS_9allocatorIS6_EEE26__swap_out_circular_bufferERNS_14__split_bufferIS6_RS8_EE, symObjAddr: 0x5094, symBinAddr: 0x100006B6C, symSize: 0x110 }
  - { offsetInCU: 0x16FA5, offset: 0x16FA5, size: 0x8, addend: 0x0, symName: __Zli2_pPKcm, symObjAddr: 0x0, symBinAddr: 0x100001AD8, symSize: 0x4C }
  - { offsetInCU: 0x16FE0, offset: 0x16FE0, size: 0x8, addend: 0x0, symName: __ZNSt3__14__fs10filesystem4pathC1B8ue170006IPKcEET_S6_NS2_6formatE, symObjAddr: 0x4C, symBinAddr: 0x100001B24, symSize: 0x44 }
  - { offsetInCU: 0x1703D, offset: 0x1703D, size: 0x8, addend: 0x0, symName: __Z9PrintTreeRNSt3__113basic_ostreamIcNS_11char_traitsIcEEEERKNS_4__fs10filesystem4pathERKNS6_11file_statusEi, symObjAddr: 0x90, symBinAddr: 0x100001B68, symSize: 0x4CC }
  - { offsetInCU: 0x1716E, offset: 0x1716E, size: 0x8, addend: 0x0, symName: __ZNSt3__16vectorINS_4pairINS_4__fs10filesystem4pathENS3_11file_statusEEENS_9allocatorIS6_EEEC1B8ue170006Ev, symObjAddr: 0x55C, symBinAddr: 0x100002034, symSize: 0x2C }
  - { offsetInCU: 0x17198, offset: 0x17198, size: 0x8, addend: 0x0, symName: __ZNKSt3__14__fs10filesystem11file_status4typeB8ue170006Ev, symObjAddr: 0x588, symBinAddr: 0x100002060, symSize: 0x18 }
  - { offsetInCU: 0x171BE, offset: 0x171BE, size: 0x8, addend: 0x0, symName: __ZNSt3__112basic_stringIcNS_11char_traitsIcEENS_9allocatorIcEEEC1B8ue170006Emc, symObjAddr: 0x5EC, symBinAddr: 0x1000020C4, symSize: 0x3C }
  - { offsetInCU: 0x17206, offset: 0x17206, size: 0x8, addend: 0x0, symName: __ZNKSt3__14__fs10filesystem4path8filenameB8ue170006Ev, symObjAddr: 0x628, symBinAddr: 0x100002100, symSize: 0x60 }
  - { offsetInCU: 0x1722C, offset: 0x1722C, size: 0x8, addend: 0x0, symName: __ZNKSt3__14__fs10filesystem4path6stringB8ue170006Ev, symObjAddr: 0x688, symBinAddr: 0x100002160, symSize: 0x38 }
  - { offsetInCU: 0x17252, offset: 0x17252, size: 0x8, addend: 0x0, symName: __ZNSt3__113basic_ostreamIcNS_11char_traitsIcEEElsB8ue170006EPFRS3_S4_E, symObjAddr: 0x6C0, symBinAddr: 0x100002198, symSize: 0x2C }
  - { offsetInCU: 0x17286, offset: 0x17286, size: 0x8, addend: 0x0, symName: __ZNSt3__14__fs10filesystem4pathD1B8ue170006Ev, symObjAddr: 0x744, symBinAddr: 0x10000221C, symSize: 0x2C }
  - { offsetInCU: 0x172B0, offset: 0x172B0, size: 0x8, addend: 0x0, symName: __ZNSt3__14__fs10filesystem18directory_iteratorC1B8ue170006ERKNS1_4pathE, symObjAddr: 0x770, symBinAddr: 0x100002248, symSize: 0x3C }
  - { offsetInCU: 0x172E8, offset: 0x172E8, size: 0x8, addend: 0x0, symName: __ZNSt3__14__fs10filesystem18directory_iteratorC1B8ue170006ERKS2_, symObjAddr: 0x7E4, symBinAddr: 0x1000022BC, symSize: 0x34 }
  - { offsetInCU: 0x1731C, offset: 0x1731C, size: 0x8, addend: 0x0, symName: __ZNSt3__14__fs10filesystem18directory_iteratorD1B8ue170006Ev, symObjAddr: 0x818, symBinAddr: 0x1000022F0, symSize: 0x2C }
  - { offsetInCU: 0x17346, offset: 0x17346, size: 0x8, addend: 0x0, symName: __ZNKSt3__14__fs10filesystem18directory_iteratordeB8ue170006Ev, symObjAddr: 0x8AC, symBinAddr: 0x100002384, symSize: 0x24 }
  - { offsetInCU: 0x1736C, offset: 0x1736C, size: 0x8, addend: 0x0, symName: __ZNSt3__16vectorINS_4pairINS_4__fs10filesystem4pathENS3_11file_statusEEENS_9allocatorIS6_EEE9push_backB8ue170006EOS6_, symObjAddr: 0x8D0, symBinAddr: 0x1000023A8, symSize: 0x6C }
  - { offsetInCU: 0x173A3, offset: 0x173A3, size: 0x8, addend: 0x0, symName: __ZNKSt3__14__fs10filesystem15directory_entry4pathB8ue170006Ev, symObjAddr: 0x93C, symBinAddr: 0x100002414, symSize: 0x14 }
  - { offsetInCU: 0x173C9, offset: 0x173C9, size: 0x8, addend: 0x0, symName: __ZNKSt3__14__fs10filesystem15directory_entry6statusB8ue170006Ev, symObjAddr: 0x950, symBinAddr: 0x100002428, symSize: 0x30 }
  - { offsetInCU: 0x173EF, offset: 0x173EF, size: 0x8, addend: 0x0, symName: __ZNSt3__14pairINS_4__fs10filesystem4pathENS2_11file_statusEEC1B8ue170006IRKS3_S4_LPv0EEEOT_OT0_, symObjAddr: 0x980, symBinAddr: 0x100002458, symSize: 0x3C }
  - { offsetInCU: 0x1744D, offset: 0x1744D, size: 0x8, addend: 0x0, symName: __ZNSt3__14pairINS_4__fs10filesystem4pathENS2_11file_statusEED1Ev, symObjAddr: 0x9BC, symBinAddr: 0x100002494, symSize: 0x2C }
  - { offsetInCU: 0x17479, offset: 0x17479, size: 0x8, addend: 0x0, symName: __ZNSt3__14__fs10filesystem11file_statusD1B8ue170006Ev, symObjAddr: 0x9E8, symBinAddr: 0x1000024C0, symSize: 0x2C }
  - { offsetInCU: 0x174A3, offset: 0x174A3, size: 0x8, addend: 0x0, symName: __ZNSt3__14__fs10filesystem18directory_iteratorppB8ue170006Ev, symObjAddr: 0xA14, symBinAddr: 0x1000024EC, symSize: 0x28 }
  - { offsetInCU: 0x174C9, offset: 0x174C9, size: 0x8, addend: 0x0, symName: __ZNSt3__16vectorINS_4pairINS_4__fs10filesystem4pathENS3_11file_statusEEENS_9allocatorIS6_EEE5beginB8ue170006Ev, symObjAddr: 0xA7C, symBinAddr: 0x100002554, symSize: 0x30 }
  - { offsetInCU: 0x174F1, offset: 0x174F1, size: 0x8, addend: 0x0, symName: __ZNSt3__16vectorINS_4pairINS_4__fs10filesystem4pathENS3_11file_statusEEENS_9allocatorIS6_EEE3endB8ue170006Ev, symObjAddr: 0xAAC, symBinAddr: 0x100002584, symSize: 0x30 }
  - { offsetInCU: 0x17519, offset: 0x17519, size: 0x8, addend: 0x0, symName: __ZNKSt3__111__wrap_iterIPNS_4pairINS_4__fs10filesystem4pathENS3_11file_statusEEEEdeB8ue170006Ev, symObjAddr: 0xB10, symBinAddr: 0x1000025E8, symSize: 0x18 }
  - { offsetInCU: 0x1753F, offset: 0x1753F, size: 0x8, addend: 0x0, symName: __ZNSt3__111__wrap_iterIPNS_4pairINS_4__fs10filesystem4pathENS3_11file_statusEEEEppB8ue170006Ev, symObjAddr: 0xB28, symBinAddr: 0x100002600, symSize: 0x20 }
  - { offsetInCU: 0x17565, offset: 0x17565, size: 0x8, addend: 0x0, symName: __ZNSt3__16vectorINS_4pairINS_4__fs10filesystem4pathENS3_11file_statusEEENS_9allocatorIS6_EEED1B8ue170006Ev, symObjAddr: 0xB48, symBinAddr: 0x100002620, symSize: 0x2C }
  - { offsetInCU: 0x1758F, offset: 0x1758F, size: 0x8, addend: 0x0, symName: __Z9PrintTreeRNSt3__113basic_ostreamIcNS_11char_traitsIcEEEERKNS_4__fs10filesystem4pathE, symObjAddr: 0xB74, symBinAddr: 0x10000264C, symSize: 0x84 }
  - { offsetInCU: 0x175EF, offset: 0x175EF, size: 0x8, addend: 0x0, symName: __ZNSt3__110error_codeC1B8ue170006Ev, symObjAddr: 0xBF8, symBinAddr: 0x1000026D0, symSize: 0x2C }
  - { offsetInCU: 0x17619, offset: 0x17619, size: 0x8, addend: 0x0, symName: _main, symObjAddr: 0xC54, symBinAddr: 0x10000272C, symSize: 0x700 }
  - { offsetInCU: 0x1766B, offset: 0x1766B, size: 0x8, addend: 0x0, symName: __ZNSt3__14__fs10filesystem4pathC1B8ue170006IA9_cvEERKT_NS2_6formatE, symObjAddr: 0x1380, symBinAddr: 0x100002E58, symSize: 0x3C }
  - { offsetInCU: 0x176BA, offset: 0x176BA, size: 0x8, addend: 0x0, symName: __ZNSt3__114basic_ofstreamIcNS_11char_traitsIcEEEC1B8ue170006ERKNS_4__fs10filesystem4pathEj, symObjAddr: 0x1494, symBinAddr: 0x100002F6C, symSize: 0x48 }
  - { offsetInCU: 0x17708, offset: 0x17708, size: 0x8, addend: 0x0, symName: __ZNSt3__114basic_ofstreamIcNS_11char_traitsIcEEED1Ev, symObjAddr: 0x14DC, symBinAddr: 0x100002FB4, symSize: 0x40 }
  - { offsetInCU: 0x17791, offset: 0x17791, size: 0x8, addend: 0x0, symName: __ZNSt3__119basic_ostringstreamIcNS_11char_traitsIcEENS_9allocatorIcEEEC1B8ue170006Ev, symObjAddr: 0x151C, symBinAddr: 0x100002FF4, symSize: 0xEC }
  - { offsetInCU: 0x177BB, offset: 0x177BB, size: 0x8, addend: 0x0, symName: __ZNKSt3__119basic_ostringstreamIcNS_11char_traitsIcEENS_9allocatorIcEEE3strB8ue170006Ev, symObjAddr: 0x1750, symBinAddr: 0x100003228, symSize: 0x30 }
  - { offsetInCU: 0x177E7, offset: 0x177E7, size: 0x8, addend: 0x0, symName: __ZNSt3__119basic_ostringstreamIcNS_11char_traitsIcEENS_9allocatorIcEEED1Ev, symObjAddr: 0x17C0, symBinAddr: 0x100003298, symSize: 0x40 }
  - { offsetInCU: 0x1781A, offset: 0x1781A, size: 0x8, addend: 0x0, symName: __ZNSt3__112basic_stringIcNS_11char_traitsIcEENS_9allocatorIcEEEC1INS_17basic_string_viewIcS2_EELi0EEERKT_, symObjAddr: 0x1800, symBinAddr: 0x1000032D8, symSize: 0x34 }
  - { offsetInCU: 0x17862, offset: 0x17862, size: 0x8, addend: 0x0, symName: __ZNSt3__14__fs10filesystem4pathC1B8ue170006EONS_12basic_stringIcNS_11char_traitsIcEENS_9allocatorIcEEEENS2_6formatE, symObjAddr: 0x1834, symBinAddr: 0x10000330C, symSize: 0x3C }
  - { offsetInCU: 0x178A7, offset: 0x178A7, size: 0x8, addend: 0x0, symName: __ZNSt3__112basic_stringIcNS_11char_traitsIcEENS_9allocatorIcEEEC2INS_17basic_string_viewIcS2_EELi0EEERKT_, symObjAddr: 0x1870, symBinAddr: 0x100003348, symSize: 0x70 }
  - { offsetInCU: 0x17912, offset: 0x17912, size: 0x8, addend: 0x0, symName: __ZNSt3__117__compressed_pairINS_12basic_stringIcNS_11char_traitsIcEENS_9allocatorIcEEE5__repES5_EC1B8ue170006INS_18__default_init_tagESA_EEOT_OT0_, symObjAddr: 0x18E0, symBinAddr: 0x1000033B8, symSize: 0x3C }
  - { offsetInCU: 0x1796A, offset: 0x1796A, size: 0x8, addend: 0x0, symName: __ZNKSt3__117basic_string_viewIcNS_11char_traitsIcEEE4dataB8ue170006Ev, symObjAddr: 0x191C, symBinAddr: 0x1000033F4, symSize: 0x18 }
  - { offsetInCU: 0x17990, offset: 0x17990, size: 0x8, addend: 0x0, symName: __ZNKSt3__117basic_string_viewIcNS_11char_traitsIcEEE4sizeB8ue170006Ev, symObjAddr: 0x1934, symBinAddr: 0x10000340C, symSize: 0x18 }
  - { offsetInCU: 0x179B6, offset: 0x179B6, size: 0x8, addend: 0x0, symName: __ZNSt3__117__compressed_pairINS_12basic_stringIcNS_11char_traitsIcEENS_9allocatorIcEEE5__repES5_EC2B8ue170006INS_18__default_init_tagESA_EEOT_OT0_, symObjAddr: 0x194C, symBinAddr: 0x100003424, symSize: 0x3C }
  - { offsetInCU: 0x17A0E, offset: 0x17A0E, size: 0x8, addend: 0x0, symName: __ZNSt3__122__compressed_pair_elemINS_12basic_stringIcNS_11char_traitsIcEENS_9allocatorIcEEE5__repELi0ELb0EEC2B8ue170006ENS_18__default_init_tagE, symObjAddr: 0x1988, symBinAddr: 0x100003460, symSize: 0x14 }
  - { offsetInCU: 0x17A42, offset: 0x17A42, size: 0x8, addend: 0x0, symName: __ZNSt3__122__compressed_pair_elemINS_9allocatorIcEELi1ELb1EEC2B8ue170006ENS_18__default_init_tagE, symObjAddr: 0x199C, symBinAddr: 0x100003474, symSize: 0x2C }
  - { offsetInCU: 0x17A76, offset: 0x17A76, size: 0x8, addend: 0x0, symName: __ZNSt3__19allocatorIcEC2B8ue170006Ev, symObjAddr: 0x19C8, symBinAddr: 0x1000034A0, symSize: 0x2C }
  - { offsetInCU: 0x17AA0, offset: 0x17AA0, size: 0x8, addend: 0x0, symName: __ZNSt3__116__non_trivial_ifILb1ENS_9allocatorIcEEEC2B8ue170006Ev, symObjAddr: 0x19F4, symBinAddr: 0x1000034CC, symSize: 0x14 }
  - { offsetInCU: 0x17ACA, offset: 0x17ACA, size: 0x8, addend: 0x0, symName: __ZNSt3__14__fs10filesystem4pathC2B8ue170006EONS_12basic_stringIcNS_11char_traitsIcEENS_9allocatorIcEEEENS2_6formatE, symObjAddr: 0x1A08, symBinAddr: 0x1000034E0, symSize: 0x38 }
  - { offsetInCU: 0x17B0F, offset: 0x17B0F, size: 0x8, addend: 0x0, symName: __ZNSt3__112basic_stringIcNS_11char_traitsIcEENS_9allocatorIcEEEC1B8ue170006EOS5_, symObjAddr: 0x1A40, symBinAddr: 0x100003518, symSize: 0x34 }
  - { offsetInCU: 0x17B48, offset: 0x17B48, size: 0x8, addend: 0x0, symName: __ZNSt3__112basic_stringIcNS_11char_traitsIcEENS_9allocatorIcEEEC2B8ue170006EOS5_, symObjAddr: 0x1A74, symBinAddr: 0x10000354C, symSize: 0x50 }
  - { offsetInCU: 0x17B81, offset: 0x17B81, size: 0x8, addend: 0x0, symName: __ZNSt3__112basic_stringIcNS_11char_traitsIcEENS_9allocatorIcEEE14__default_initB8ue170006Ev, symObjAddr: 0x1AC4, symBinAddr: 0x10000359C, symSize: 0x40 }
  - { offsetInCU: 0x17BA7, offset: 0x17BA7, size: 0x8, addend: 0x0, symName: __ZNSt3__117__compressed_pairINS_12basic_stringIcNS_11char_traitsIcEENS_9allocatorIcEEE5__repES5_E5firstB8ue170006Ev, symObjAddr: 0x1B10, symBinAddr: 0x1000035E8, symSize: 0x24 }
  - { offsetInCU: 0x17BCD, offset: 0x17BCD, size: 0x8, addend: 0x0, symName: __ZNSt3__122__compressed_pair_elemINS_12basic_stringIcNS_11char_traitsIcEENS_9allocatorIcEEE5__repELi0ELb0EE5__getB8ue170006Ev, symObjAddr: 0x1B34, symBinAddr: 0x10000360C, symSize: 0x14 }
  - { offsetInCU: 0x17BF3, offset: 0x17BF3, size: 0x8, addend: 0x0, symName: __ZNSt3__14__fs10filesystem4pathD2B8ue170006Ev, symObjAddr: 0x1B48, symBinAddr: 0x100003620, symSize: 0x2C }
  - { offsetInCU: 0x17C1D, offset: 0x17C1D, size: 0x8, addend: 0x0, symName: __ZNSt3__14__fs10filesystem18directory_iteratorC1B8ue170006EOS2_, symObjAddr: 0x1B74, symBinAddr: 0x10000364C, symSize: 0x34 }
  - { offsetInCU: 0x17C51, offset: 0x17C51, size: 0x8, addend: 0x0, symName: __ZNSt3__14__fs10filesystem18directory_iteratorC2B8ue170006EOS2_, symObjAddr: 0x1BA8, symBinAddr: 0x100003680, symSize: 0x34 }
  - { offsetInCU: 0x17C85, offset: 0x17C85, size: 0x8, addend: 0x0, symName: __ZNSt3__110shared_ptrINS_4__fs10filesystem12__dir_streamEEC1B8ue170006EOS4_, symObjAddr: 0x1BDC, symBinAddr: 0x1000036B4, symSize: 0x34 }
  - { offsetInCU: 0x17CBE, offset: 0x17CBE, size: 0x8, addend: 0x0, symName: __ZNSt3__110shared_ptrINS_4__fs10filesystem12__dir_streamEEC2B8ue170006EOS4_, symObjAddr: 0x1C10, symBinAddr: 0x1000036E8, symSize: 0x40 }
  - { offsetInCU: 0x17CF7, offset: 0x17CF7, size: 0x8, addend: 0x0, symName: __ZNSt3__14__fs10filesystem18directory_iteratorC2B8ue170006ERKS2_, symObjAddr: 0x1C50, symBinAddr: 0x100003728, symSize: 0x34 }
  - { offsetInCU: 0x17D2B, offset: 0x17D2B, size: 0x8, addend: 0x0, symName: __ZNSt3__110shared_ptrINS_4__fs10filesystem12__dir_streamEEC1B8ue170006ERKS4_, symObjAddr: 0x1C84, symBinAddr: 0x10000375C, symSize: 0x34 }
  - { offsetInCU: 0x17D64, offset: 0x17D64, size: 0x8, addend: 0x0, symName: __ZNSt3__110shared_ptrINS_4__fs10filesystem12__dir_streamEEC2B8ue170006ERKS4_, symObjAddr: 0x1CB8, symBinAddr: 0x100003790, symSize: 0x70 }
  - { offsetInCU: 0x17D9D, offset: 0x17D9D, size: 0x8, addend: 0x0, symName: __ZNSt3__119__shared_weak_count12__add_sharedB8ue170006Ev, symObjAddr: 0x1D28, symBinAddr: 0x100003800, symSize: 0x24 }
  - { offsetInCU: 0x17DC3, offset: 0x17DC3, size: 0x8, addend: 0x0, symName: __ZNSt3__114__shared_count12__add_sharedB8ue170006Ev, symObjAddr: 0x1D4C, symBinAddr: 0x100003824, symSize: 0x28 }
  - { offsetInCU: 0x17DE9, offset: 0x17DE9, size: 0x8, addend: 0x0, symName: __ZNSt3__14__fs10filesystem18directory_iteratorD2B8ue170006Ev, symObjAddr: 0x1DA4, symBinAddr: 0x10000387C, symSize: 0x2C }
  - { offsetInCU: 0x17E13, offset: 0x17E13, size: 0x8, addend: 0x0, symName: __ZNSt3__110shared_ptrINS_4__fs10filesystem12__dir_streamEED1B8ue170006Ev, symObjAddr: 0x1DD0, symBinAddr: 0x1000038A8, symSize: 0x2C }
  - { offsetInCU: 0x17E3D, offset: 0x17E3D, size: 0x8, addend: 0x0, symName: __ZNSt3__110shared_ptrINS_4__fs10filesystem12__dir_streamEED2B8ue170006Ev, symObjAddr: 0x1DFC, symBinAddr: 0x1000038D4, symSize: 0x54 }
  - { offsetInCU: 0x17E67, offset: 0x17E67, size: 0x8, addend: 0x0, symName: __ZNSt3__119__shared_weak_count16__release_sharedB8ue170006Ev, symObjAddr: 0x1E50, symBinAddr: 0x100003928, symSize: 0x3C }
  - { offsetInCU: 0x17E8D, offset: 0x17E8D, size: 0x8, addend: 0x0, symName: __ZNSt3__114__shared_count16__release_sharedB8ue170006Ev, symObjAddr: 0x1E8C, symBinAddr: 0x100003964, symSize: 0x7C }
  - { offsetInCU: 0x17EB3, offset: 0x17EB3, size: 0x8, addend: 0x0, symName: __ZNSt3__14__fs10filesystem18directory_iteratorC1B8ue170006Ev, symObjAddr: 0x1F38, symBinAddr: 0x100003A10, symSize: 0x2C }
  - { offsetInCU: 0x17EDD, offset: 0x17EDD, size: 0x8, addend: 0x0, symName: __ZNSt3__14__fs10filesystem18directory_iteratorC2B8ue170006Ev, symObjAddr: 0x1F64, symBinAddr: 0x100003A3C, symSize: 0x2C }
  - { offsetInCU: 0x17F07, offset: 0x17F07, size: 0x8, addend: 0x0, symName: __ZNSt3__110shared_ptrINS_4__fs10filesystem12__dir_streamEEC1B8ue170006Ev, symObjAddr: 0x1F90, symBinAddr: 0x100003A68, symSize: 0x2C }
  - { offsetInCU: 0x17F31, offset: 0x17F31, size: 0x8, addend: 0x0, symName: __ZNSt3__110shared_ptrINS_4__fs10filesystem12__dir_streamEEC2B8ue170006Ev, symObjAddr: 0x1FBC, symBinAddr: 0x100003A94, symSize: 0x1C }
  - { offsetInCU: 0x17F5B, offset: 0x17F5B, size: 0x8, addend: 0x0, symName: __ZNKSt3__110shared_ptrINS_4__fs10filesystem12__dir_streamEE3getB8ue170006Ev, symObjAddr: 0x2050, symBinAddr: 0x100003B28, symSize: 0x18 }
  - { offsetInCU: 0x17F81, offset: 0x17F81, size: 0x8, addend: 0x0, symName: __ZNKSt3__14__fs10filesystem15directory_entry12__get_statusB8ue170006EPNS_10error_codeE, symObjAddr: 0x2068, symBinAddr: 0x100003B40, symSize: 0xC8 }
  - { offsetInCU: 0x17FB6, offset: 0x17FB6, size: 0x8, addend: 0x0, symName: __ZNKSt3__14__fs10filesystem15directory_entry8__get_ftB8ue170006EPNS_10error_codeE, symObjAddr: 0x2130, symBinAddr: 0x100003C08, symSize: 0x1B8 }
  - { offsetInCU: 0x18008, offset: 0x18008, size: 0x8, addend: 0x0, symName: __ZNSt3__14__fs10filesystem11file_statusC1B8ue170006ENS1_9file_typeENS1_5permsE, symObjAddr: 0x22E8, symBinAddr: 0x100003DC0, symSize: 0x3C }
  - { offsetInCU: 0x1804E, offset: 0x1804E, size: 0x8, addend: 0x0, symName: __ZNSt3__110error_code5clearB8ue170006Ev, symObjAddr: 0x23E0, symBinAddr: 0x100003EB8, symSize: 0x34 }
  - { offsetInCU: 0x18074, offset: 0x18074, size: 0x8, addend: 0x0, symName: __ZNSt3__110error_codeC1B8ue170006EiRKNS_14error_categoryE, symObjAddr: 0x2444, symBinAddr: 0x100003F1C, symSize: 0x3C }
  - { offsetInCU: 0x180BA, offset: 0x180BA, size: 0x8, addend: 0x0, symName: __ZNSt3__110error_codeC2B8ue170006EiRKNS_14error_categoryE, symObjAddr: 0x2480, symBinAddr: 0x100003F58, symSize: 0x2C }
  - { offsetInCU: 0x18100, offset: 0x18100, size: 0x8, addend: 0x0, symName: __ZNSt3__14__fs10filesystem11file_statusC2B8ue170006ENS1_9file_typeENS1_5permsE, symObjAddr: 0x24AC, symBinAddr: 0x100003F84, symSize: 0x2C }
  - { offsetInCU: 0x18146, offset: 0x18146, size: 0x8, addend: 0x0, symName: __ZNSt3__14pairINS_4__fs10filesystem4pathENS2_11file_statusEEC2B8ue170006IRKS3_S4_LPv0EEEOT_OT0_, symObjAddr: 0x24D8, symBinAddr: 0x100003FB0, symSize: 0x44 }
  - { offsetInCU: 0x181A4, offset: 0x181A4, size: 0x8, addend: 0x0, symName: __ZNSt3__14__fs10filesystem4pathC1B8ue170006ERKS2_, symObjAddr: 0x251C, symBinAddr: 0x100003FF4, symSize: 0x34 }
  - { offsetInCU: 0x181DD, offset: 0x181DD, size: 0x8, addend: 0x0, symName: __ZNSt3__14__fs10filesystem4pathC2B8ue170006ERKS2_, symObjAddr: 0x2550, symBinAddr: 0x100004028, symSize: 0x34 }
  - { offsetInCU: 0x18216, offset: 0x18216, size: 0x8, addend: 0x0, symName: __ZNSt3__14pairINS_4__fs10filesystem4pathENS2_11file_statusEED2Ev, symObjAddr: 0x2584, symBinAddr: 0x10000405C, symSize: 0x38 }
  - { offsetInCU: 0x18242, offset: 0x18242, size: 0x8, addend: 0x0, symName: __ZNSt3__14__fs10filesystem11file_statusD2B8ue170006Ev, symObjAddr: 0x25BC, symBinAddr: 0x100004094, symSize: 0x14 }
  - { offsetInCU: 0x1826C, offset: 0x1826C, size: 0x8, addend: 0x0, symName: __ZNKSt3__111__wrap_iterIPNS_4pairINS_4__fs10filesystem4pathENS3_11file_statusEEEE4baseB8ue170006Ev, symObjAddr: 0x2618, symBinAddr: 0x1000040F0, symSize: 0x18 }
  - { offsetInCU: 0x18292, offset: 0x18292, size: 0x8, addend: 0x0, symName: __ZNSt3__110error_codeC2B8ue170006Ev, symObjAddr: 0x2630, symBinAddr: 0x100004108, symSize: 0x38 }
  - { offsetInCU: 0x182BC, offset: 0x182BC, size: 0x8, addend: 0x0, symName: __ZNSt3__14__fs10filesystem4pathdVB8ue170006ERKS2_, symObjAddr: 0x2668, symBinAddr: 0x100004140, symSize: 0x94 }
  - { offsetInCU: 0x182F1, offset: 0x182F1, size: 0x8, addend: 0x0, symName: __ZNKSt3__14__fs10filesystem4path11is_absoluteB8ue170006Ev, symObjAddr: 0x26FC, symBinAddr: 0x1000041D4, symSize: 0x28 }
  - { offsetInCU: 0x18317, offset: 0x18317, size: 0x8, addend: 0x0, symName: __ZNKSt3__14__fs10filesystem4path12has_filenameB8ue170006Ev, symObjAddr: 0x2724, symBinAddr: 0x1000041FC, symSize: 0x40 }
  - { offsetInCU: 0x1833D, offset: 0x1833D, size: 0x8, addend: 0x0, symName: __ZNSt3__112basic_stringIcNS_11char_traitsIcEENS_9allocatorIcEEEpLB8ue170006Ec, symObjAddr: 0x2764, symBinAddr: 0x10000423C, symSize: 0x34 }
  - { offsetInCU: 0x18372, offset: 0x18372, size: 0x8, addend: 0x0, symName: __ZNKSt3__14__fs10filesystem4path6nativeB8ue170006Ev, symObjAddr: 0x2798, symBinAddr: 0x100004270, symSize: 0x14 }
  - { offsetInCU: 0x18398, offset: 0x18398, size: 0x8, addend: 0x0, symName: __ZNSt3__112basic_stringIcNS_11char_traitsIcEENS_9allocatorIcEEEpLB8ue170006ERKS5_, symObjAddr: 0x27AC, symBinAddr: 0x100004284, symSize: 0x2C }
  - { offsetInCU: 0x183CD, offset: 0x183CD, size: 0x8, addend: 0x0, symName: __ZNKSt3__14__fs10filesystem4path18has_root_directoryB8ue170006Ev, symObjAddr: 0x27D8, symBinAddr: 0x1000042B0, symSize: 0x40 }
  - { offsetInCU: 0x183F3, offset: 0x183F3, size: 0x8, addend: 0x0, symName: __ZNKSt3__117basic_string_viewIcNS_11char_traitsIcEEE5emptyB8ue170006Ev, symObjAddr: 0x2818, symBinAddr: 0x1000042F0, symSize: 0x24 }
  - { offsetInCU: 0x18419, offset: 0x18419, size: 0x8, addend: 0x0, symName: __ZNSt3__112basic_stringIcNS_11char_traitsIcEENS_9allocatorIcEEE6appendB8ue170006ERKS5_, symObjAddr: 0x283C, symBinAddr: 0x100004314, symSize: 0x4C }
  - { offsetInCU: 0x1844E, offset: 0x1844E, size: 0x8, addend: 0x0, symName: __ZNKSt3__112basic_stringIcNS_11char_traitsIcEENS_9allocatorIcEEE4dataB8ue170006Ev, symObjAddr: 0x2888, symBinAddr: 0x100004360, symSize: 0x28 }
  - { offsetInCU: 0x18474, offset: 0x18474, size: 0x8, addend: 0x0, symName: __ZNKSt3__112basic_stringIcNS_11char_traitsIcEENS_9allocatorIcEEE4sizeB8ue170006Ev, symObjAddr: 0x28B0, symBinAddr: 0x100004388, symSize: 0x54 }
  - { offsetInCU: 0x1849A, offset: 0x1849A, size: 0x8, addend: 0x0, symName: __ZNKSt3__112basic_stringIcNS_11char_traitsIcEENS_9allocatorIcEEE13__get_pointerB8ue170006Ev, symObjAddr: 0x2918, symBinAddr: 0x1000043F0, symSize: 0x54 }
  - { offsetInCU: 0x184C0, offset: 0x184C0, size: 0x8, addend: 0x0, symName: __ZNKSt3__112basic_stringIcNS_11char_traitsIcEENS_9allocatorIcEEE9__is_longB8ue170006Ev, symObjAddr: 0x296C, symBinAddr: 0x100004444, symSize: 0x38 }
  - { offsetInCU: 0x184E6, offset: 0x184E6, size: 0x8, addend: 0x0, symName: __ZNKSt3__112basic_stringIcNS_11char_traitsIcEENS_9allocatorIcEEE18__get_long_pointerB8ue170006Ev, symObjAddr: 0x29A4, symBinAddr: 0x10000447C, symSize: 0x28 }
  - { offsetInCU: 0x1850C, offset: 0x1850C, size: 0x8, addend: 0x0, symName: __ZNKSt3__112basic_stringIcNS_11char_traitsIcEENS_9allocatorIcEEE19__get_short_pointerB8ue170006Ev, symObjAddr: 0x29CC, symBinAddr: 0x1000044A4, symSize: 0x28 }
  - { offsetInCU: 0x18532, offset: 0x18532, size: 0x8, addend: 0x0, symName: __ZNKSt3__117__compressed_pairINS_12basic_stringIcNS_11char_traitsIcEENS_9allocatorIcEEE5__repES5_E5firstB8ue170006Ev, symObjAddr: 0x29F4, symBinAddr: 0x1000044CC, symSize: 0x24 }
  - { offsetInCU: 0x18558, offset: 0x18558, size: 0x8, addend: 0x0, symName: __ZNKSt3__122__compressed_pair_elemINS_12basic_stringIcNS_11char_traitsIcEENS_9allocatorIcEEE5__repELi0ELb0EE5__getB8ue170006Ev, symObjAddr: 0x2A18, symBinAddr: 0x1000044F0, symSize: 0x14 }
  - { offsetInCU: 0x1857E, offset: 0x1857E, size: 0x8, addend: 0x0, symName: __ZNSt3__114pointer_traitsIPKcE10pointer_toB8ue170006ERS1_, symObjAddr: 0x2A2C, symBinAddr: 0x100004504, symSize: 0x14 }
  - { offsetInCU: 0x185A1, offset: 0x185A1, size: 0x8, addend: 0x0, symName: __ZNKSt3__112basic_stringIcNS_11char_traitsIcEENS_9allocatorIcEEE15__get_long_sizeB8ue170006Ev, symObjAddr: 0x2A40, symBinAddr: 0x100004518, symSize: 0x28 }
  - { offsetInCU: 0x185C7, offset: 0x185C7, size: 0x8, addend: 0x0, symName: __ZNKSt3__112basic_stringIcNS_11char_traitsIcEENS_9allocatorIcEEE16__get_short_sizeB8ue170006Ev, symObjAddr: 0x2A68, symBinAddr: 0x100004540, symSize: 0x34 }
  - { offsetInCU: 0x185ED, offset: 0x185ED, size: 0x8, addend: 0x0, symName: __ZNSt3__114basic_ofstreamIcNS_11char_traitsIcEEED2Ev, symObjAddr: 0x2A9C, symBinAddr: 0x100004574, symSize: 0x64 }
  - { offsetInCU: 0x18627, offset: 0x18627, size: 0x8, addend: 0x0, symName: __ZTv0_n24_NSt3__114basic_ofstreamIcNS_11char_traitsIcEEED1Ev, symObjAddr: 0x2B00, symBinAddr: 0x1000045D8, symSize: 0x28 }
  - { offsetInCU: 0x1863E, offset: 0x1863E, size: 0x8, addend: 0x0, symName: __ZNSt3__112basic_stringIcNS_11char_traitsIcEENS_9allocatorIcEEEC1B8ue170006EPKcm, symObjAddr: 0x2B28, symBinAddr: 0x100004600, symSize: 0x3C }
  - { offsetInCU: 0x18686, offset: 0x18686, size: 0x8, addend: 0x0, symName: __ZNSt3__112basic_stringIcNS_11char_traitsIcEENS_9allocatorIcEEEC2B8ue170006EPKcm, symObjAddr: 0x2B64, symBinAddr: 0x10000463C, symSize: 0x4C }
  - { offsetInCU: 0x186CE, offset: 0x186CE, size: 0x8, addend: 0x0, symName: __ZNSt3__119basic_ostringstreamIcNS_11char_traitsIcEENS_9allocatorIcEEED2Ev, symObjAddr: 0x2BB0, symBinAddr: 0x100004688, symSize: 0x64 }
  - { offsetInCU: 0x18708, offset: 0x18708, size: 0x8, addend: 0x0, symName: __ZTv0_n24_NSt3__119basic_ostringstreamIcNS_11char_traitsIcEENS_9allocatorIcEEED1Ev, symObjAddr: 0x2C14, symBinAddr: 0x1000046EC, symSize: 0x28 }
  - { offsetInCU: 0x18725, offset: 0x18725, size: 0x8, addend: 0x0, symName: __ZNSt3__115basic_stringbufIcNS_11char_traitsIcEENS_9allocatorIcEEED1Ev, symObjAddr: 0x2C3C, symBinAddr: 0x100004714, symSize: 0x2C }
  - { offsetInCU: 0x18752, offset: 0x18752, size: 0x8, addend: 0x0, symName: __ZNSt3__115basic_stringbufIcNS_11char_traitsIcEENS_9allocatorIcEEED2Ev, symObjAddr: 0x2C68, symBinAddr: 0x100004740, symSize: 0x48 }
  - { offsetInCU: 0x1877F, offset: 0x1877F, size: 0x8, addend: 0x0, symName: __ZNSt3__14__fs10filesystem4pathC2B8ue170006IPKcEET_S6_NS2_6formatE, symObjAddr: 0x2CB0, symBinAddr: 0x100004788, symSize: 0x70 }
  - { offsetInCU: 0x187DC, offset: 0x187DC, size: 0x8, addend: 0x0, symName: __ZNSt3__112basic_stringIcNS_11char_traitsIcEENS_9allocatorIcEEEC1B8ue170006Ev, symObjAddr: 0x2D20, symBinAddr: 0x1000047F8, symSize: 0x2C }
  - { offsetInCU: 0x1880C, offset: 0x1880C, size: 0x8, addend: 0x0, symName: __ZNSt3__14__fs10filesystem8_PathCVTIcE14__append_rangeB8ue170006IPKcEENS_9enable_ifIXsr31__has_forward_iterator_categoryIT_EE5valueEvE4typeERNS_12basic_stringIcNS_11char_traitsIcEENS_9allocatorIcEEEES8_S8_, symObjAddr: 0x2D4C, symBinAddr: 0x100004824, symSize: 0x34 }
  - { offsetInCU: 0x18857, offset: 0x18857, size: 0x8, addend: 0x0, symName: __ZNSt3__112basic_stringIcNS_11char_traitsIcEENS_9allocatorIcEEEC2B8ue170006Ev, symObjAddr: 0x2D80, symBinAddr: 0x100004858, symSize: 0x44 }
  - { offsetInCU: 0x18881, offset: 0x18881, size: 0x8, addend: 0x0, symName: __ZNSt3__112basic_stringIcNS_11char_traitsIcEENS_9allocatorIcEEE6appendB8ue170006IPKcLi0EEERS5_T_SA_, symObjAddr: 0x2DC4, symBinAddr: 0x10000489C, symSize: 0x1E4 }
  - { offsetInCU: 0x18935, offset: 0x18935, size: 0x8, addend: 0x0, symName: __ZNKSt3__112basic_stringIcNS_11char_traitsIcEENS_9allocatorIcEEE8capacityB8ue170006Ev, symObjAddr: 0x2FA8, symBinAddr: 0x100004A80, symSize: 0x54 }
  - { offsetInCU: 0x1895B, offset: 0x1895B, size: 0x8, addend: 0x0, symName: __ZNKSt3__112basic_stringIcNS_11char_traitsIcEENS_9allocatorIcEEE15__addr_in_rangeB8ue170006IcEEbRKT_, symObjAddr: 0x3028, symBinAddr: 0x100004B00, symSize: 0x6C }
  - { offsetInCU: 0x18999, offset: 0x18999, size: 0x8, addend: 0x0, symName: __ZNSt3__112basic_stringIcNS_11char_traitsIcEENS_9allocatorIcEEE25__grow_by_without_replaceB8ue170006Emmmmmm, symObjAddr: 0x3094, symBinAddr: 0x100004B6C, symSize: 0x74 }
  - { offsetInCU: 0x18A1B, offset: 0x18A1B, size: 0x8, addend: 0x0, symName: __ZNSt3__112basic_stringIcNS_11char_traitsIcEENS_9allocatorIcEEE13__get_pointerB8ue170006Ev, symObjAddr: 0x3108, symBinAddr: 0x100004BE0, symSize: 0x54 }
  - { offsetInCU: 0x18A41, offset: 0x18A41, size: 0x8, addend: 0x0, symName: __ZNSt3__111char_traitsIcE6assignB8ue170006ERcRKc, symObjAddr: 0x315C, symBinAddr: 0x100004C34, symSize: 0x24 }
  - { offsetInCU: 0x18A72, offset: 0x18A72, size: 0x8, addend: 0x0, symName: __ZNSt3__112basic_stringIcNS_11char_traitsIcEENS_9allocatorIcEEE10__set_sizeB8ue170006Em, symObjAddr: 0x3180, symBinAddr: 0x100004C58, symSize: 0x54 }
  - { offsetInCU: 0x18AA7, offset: 0x18AA7, size: 0x8, addend: 0x0, symName: __ZNSt3__112basic_stringIcNS_11char_traitsIcEENS_9allocatorIcEEE7__allocB8ue170006Ev, symObjAddr: 0x31D4, symBinAddr: 0x100004CAC, symSize: 0x24 }
  - { offsetInCU: 0x18ACD, offset: 0x18ACD, size: 0x8, addend: 0x0, symName: __ZNSt3__112basic_stringIcNS_11char_traitsIcEENS_9allocatorIcEEEC1B8ue170006IPKcLi0EEET_S9_RKS4_, symObjAddr: 0x31F8, symBinAddr: 0x100004CD0, symSize: 0x44 }
  - { offsetInCU: 0x18B33, offset: 0x18B33, size: 0x8, addend: 0x0, symName: __ZNKSt3__112basic_stringIcNS_11char_traitsIcEENS_9allocatorIcEEE14__get_long_capB8ue170006Ev, symObjAddr: 0x323C, symBinAddr: 0x100004D14, symSize: 0x30 }
  - { offsetInCU: 0x18B6F, offset: 0x18B6F, size: 0x8, addend: 0x0, symName: __ZNKSt3__16__lessIvvEclB8ue170006IPKcS4_EEbRKT_RKT0_, symObjAddr: 0x32F4, symBinAddr: 0x100004DCC, symSize: 0x34 }
  - { offsetInCU: 0x18BC3, offset: 0x18BC3, size: 0x8, addend: 0x0, symName: __ZNSt3__112basic_stringIcNS_11char_traitsIcEENS_9allocatorIcEEE15__set_long_sizeB8ue170006Em, symObjAddr: 0x3328, symBinAddr: 0x100004E00, symSize: 0x38 }
  - { offsetInCU: 0x18BF8, offset: 0x18BF8, size: 0x8, addend: 0x0, symName: __ZNSt3__112basic_stringIcNS_11char_traitsIcEENS_9allocatorIcEEE18__get_long_pointerB8ue170006Ev, symObjAddr: 0x3360, symBinAddr: 0x100004E38, symSize: 0x28 }
  - { offsetInCU: 0x18C1E, offset: 0x18C1E, size: 0x8, addend: 0x0, symName: __ZNSt3__112basic_stringIcNS_11char_traitsIcEENS_9allocatorIcEEE19__get_short_pointerB8ue170006Ev, symObjAddr: 0x3388, symBinAddr: 0x100004E60, symSize: 0x28 }
  - { offsetInCU: 0x18C44, offset: 0x18C44, size: 0x8, addend: 0x0, symName: __ZNSt3__114pointer_traitsIPcE10pointer_toB8ue170006ERc, symObjAddr: 0x33B0, symBinAddr: 0x100004E88, symSize: 0x14 }
  - { offsetInCU: 0x18C67, offset: 0x18C67, size: 0x8, addend: 0x0, symName: __ZNSt3__112basic_stringIcNS_11char_traitsIcEENS_9allocatorIcEEE16__set_short_sizeB8ue170006Em, symObjAddr: 0x33C4, symBinAddr: 0x100004E9C, symSize: 0x78 }
  - { offsetInCU: 0x18C9C, offset: 0x18C9C, size: 0x8, addend: 0x0, symName: __ZNSt3__117__compressed_pairINS_12basic_stringIcNS_11char_traitsIcEENS_9allocatorIcEEE5__repES5_E6secondB8ue170006Ev, symObjAddr: 0x343C, symBinAddr: 0x100004F14, symSize: 0x24 }
  - { offsetInCU: 0x18CC2, offset: 0x18CC2, size: 0x8, addend: 0x0, symName: __ZNSt3__122__compressed_pair_elemINS_9allocatorIcEELi1ELb1EE5__getB8ue170006Ev, symObjAddr: 0x3460, symBinAddr: 0x100004F38, symSize: 0x14 }
  - { offsetInCU: 0x18CE8, offset: 0x18CE8, size: 0x8, addend: 0x0, symName: __ZNSt3__112basic_stringIcNS_11char_traitsIcEENS_9allocatorIcEEEC2B8ue170006IPKcLi0EEET_S9_RKS4_, symObjAddr: 0x3474, symBinAddr: 0x100004F4C, symSize: 0x50 }
  - { offsetInCU: 0x18D4E, offset: 0x18D4E, size: 0x8, addend: 0x0, symName: __ZNSt3__117__compressed_pairINS_12basic_stringIcNS_11char_traitsIcEENS_9allocatorIcEEE5__repES5_EC1B8ue170006INS_18__default_init_tagERKS5_EEOT_OT0_, symObjAddr: 0x34C4, symBinAddr: 0x100004F9C, symSize: 0x3C }
  - { offsetInCU: 0x18DA6, offset: 0x18DA6, size: 0x8, addend: 0x0, symName: __ZNSt3__112basic_stringIcNS_11char_traitsIcEENS_9allocatorIcEEE6__initIPKcLi0EEEvT_S9_, symObjAddr: 0x3500, symBinAddr: 0x100004FD8, symSize: 0x54 }
  - { offsetInCU: 0x18E0A, offset: 0x18E0A, size: 0x8, addend: 0x0, symName: __ZNSt3__117__compressed_pairINS_12basic_stringIcNS_11char_traitsIcEENS_9allocatorIcEEE5__repES5_EC2B8ue170006INS_18__default_init_tagERKS5_EEOT_OT0_, symObjAddr: 0x3554, symBinAddr: 0x10000502C, symSize: 0x40 }
  - { offsetInCU: 0x18E62, offset: 0x18E62, size: 0x8, addend: 0x0, symName: __ZNSt3__122__compressed_pair_elemINS_9allocatorIcEELi1ELb1EEC2B8ue170006IRKS2_vEEOT_, symObjAddr: 0x3594, symBinAddr: 0x10000506C, symSize: 0x18 }
  - { offsetInCU: 0x18EA4, offset: 0x18EA4, size: 0x8, addend: 0x0, symName: __ZNSt3__112basic_stringIcNS_11char_traitsIcEENS_9allocatorIcEEE16__init_with_sizeB8ue170006IPKcS8_EEvT_T0_m, symObjAddr: 0x35AC, symBinAddr: 0x100005084, symSize: 0x144 }
  - { offsetInCU: 0x18F37, offset: 0x18F37, size: 0x8, addend: 0x0, symName: __ZNKSt3__112basic_stringIcNS_11char_traitsIcEENS_9allocatorIcEEE8max_sizeB8ue170006Ev, symObjAddr: 0x36F0, symBinAddr: 0x1000051C8, symSize: 0xAC }
  - { offsetInCU: 0x18F89, offset: 0x18F89, size: 0x8, addend: 0x0, symName: __ZNKSt3__112basic_stringIcNS_11char_traitsIcEENS_9allocatorIcEEE20__throw_length_errorB8ue170006Ev, symObjAddr: 0x379C, symBinAddr: 0x100005274, symSize: 0x1C }
  - { offsetInCU: 0x18FAF, offset: 0x18FAF, size: 0x8, addend: 0x0, symName: __ZNSt3__112basic_stringIcNS_11char_traitsIcEENS_9allocatorIcEEE13__fits_in_ssoB8ue170006Em, symObjAddr: 0x37B8, symBinAddr: 0x100005290, symSize: 0x20 }
  - { offsetInCU: 0x18FD3, offset: 0x18FD3, size: 0x8, addend: 0x0, symName: __ZNSt3__112basic_stringIcNS_11char_traitsIcEENS_9allocatorIcEEE11__recommendB8ue170006Em, symObjAddr: 0x3818, symBinAddr: 0x1000052F0, symSize: 0x84 }
  - { offsetInCU: 0x19006, offset: 0x19006, size: 0x8, addend: 0x0, symName: __ZNSt3__112basic_stringIcNS_11char_traitsIcEENS_9allocatorIcEEE16__begin_lifetimeB8ue170006EPcm, symObjAddr: 0x389C, symBinAddr: 0x100005374, symSize: 0x14 }
  - { offsetInCU: 0x19039, offset: 0x19039, size: 0x8, addend: 0x0, symName: __ZNSt3__112basic_stringIcNS_11char_traitsIcEENS_9allocatorIcEEE18__set_long_pointerB8ue170006EPc, symObjAddr: 0x38B0, symBinAddr: 0x100005388, symSize: 0x38 }
  - { offsetInCU: 0x1906E, offset: 0x1906E, size: 0x8, addend: 0x0, symName: __ZNSt3__112basic_stringIcNS_11char_traitsIcEENS_9allocatorIcEEE14__set_long_capB8ue170006Em, symObjAddr: 0x38E8, symBinAddr: 0x1000053C0, symSize: 0x70 }
  - { offsetInCU: 0x190AE, offset: 0x190AE, size: 0x8, addend: 0x0, symName: __ZNSt3__116allocator_traitsINS_9allocatorIcEEE8max_sizeB8ue170006IS2_vEEmRKS2_, symObjAddr: 0x3958, symBinAddr: 0x100005430, symSize: 0x24 }
  - { offsetInCU: 0x190DC, offset: 0x190DC, size: 0x8, addend: 0x0, symName: __ZNKSt3__112basic_stringIcNS_11char_traitsIcEENS_9allocatorIcEEE7__allocB8ue170006Ev, symObjAddr: 0x397C, symBinAddr: 0x100005454, symSize: 0x24 }
  - { offsetInCU: 0x19102, offset: 0x19102, size: 0x8, addend: 0x0, symName: __ZNSt3__114numeric_limitsImE3maxB8ue170006Ev, symObjAddr: 0x39A0, symBinAddr: 0x100005478, symSize: 0x14 }
  - { offsetInCU: 0x19116, offset: 0x19116, size: 0x8, addend: 0x0, symName: __ZNKSt3__19allocatorIcE8max_sizeB8ue170006Ev, symObjAddr: 0x39B4, symBinAddr: 0x10000548C, symSize: 0x14 }
  - { offsetInCU: 0x1913C, offset: 0x1913C, size: 0x8, addend: 0x0, symName: __ZNKSt3__117__compressed_pairINS_12basic_stringIcNS_11char_traitsIcEENS_9allocatorIcEEE5__repES5_E6secondB8ue170006Ev, symObjAddr: 0x39C8, symBinAddr: 0x1000054A0, symSize: 0x24 }
  - { offsetInCU: 0x19162, offset: 0x19162, size: 0x8, addend: 0x0, symName: __ZNKSt3__122__compressed_pair_elemINS_9allocatorIcEELi1ELb1EE5__getB8ue170006Ev, symObjAddr: 0x39EC, symBinAddr: 0x1000054C4, symSize: 0x14 }
  - { offsetInCU: 0x19188, offset: 0x19188, size: 0x8, addend: 0x0, symName: __ZNSt3__123__libcpp_numeric_limitsImLb1EE3maxB8ue170006Ev, symObjAddr: 0x3A00, symBinAddr: 0x1000054D8, symSize: 0x8 }
  - { offsetInCU: 0x1919C, offset: 0x1919C, size: 0x8, addend: 0x0, symName: __ZNSt12length_errorC1B8ue170006EPKc, symObjAddr: 0x3A6C, symBinAddr: 0x100005544, symSize: 0x34 }
  - { offsetInCU: 0x191D4, offset: 0x191D4, size: 0x8, addend: 0x0, symName: __ZNSt12length_errorC2B8ue170006EPKc, symObjAddr: 0x3AA0, symBinAddr: 0x100005578, symSize: 0x4C }
  - { offsetInCU: 0x1920C, offset: 0x1920C, size: 0x8, addend: 0x0, symName: __ZNSt3__19allocatorIcE8allocateB8ue170006Em, symObjAddr: 0x3AEC, symBinAddr: 0x1000055C4, symSize: 0x58 }
  - { offsetInCU: 0x19240, offset: 0x19240, size: 0x8, addend: 0x0, symName: __ZNSt3__112basic_stringIcNS_11char_traitsIcEENS_9allocatorIcEEE10__align_itB8ue170006ILm16EEEmm, symObjAddr: 0x3C48, symBinAddr: 0x100005720, symSize: 0x1C }
  - { offsetInCU: 0x1926E, offset: 0x1926E, size: 0x8, addend: 0x0, symName: __ZNSt3__16vectorINS_4pairINS_4__fs10filesystem4pathENS3_11file_statusEEENS_9allocatorIS6_EEEC2B8ue170006Ev, symObjAddr: 0x3C64, symBinAddr: 0x10000573C, symSize: 0x4C }
  - { offsetInCU: 0x1929E, offset: 0x1929E, size: 0x8, addend: 0x0, symName: __ZNSt3__117__compressed_pairIPNS_4pairINS_4__fs10filesystem4pathENS3_11file_statusEEENS_9allocatorIS6_EEEC1B8ue170006IDnNS_18__default_init_tagEEEOT_OT0_, symObjAddr: 0x3CB0, symBinAddr: 0x100005788, symSize: 0x3C }
  - { offsetInCU: 0x192F6, offset: 0x192F6, size: 0x8, addend: 0x0, symName: __ZNSt3__117__compressed_pairIPNS_4pairINS_4__fs10filesystem4pathENS3_11file_statusEEENS_9allocatorIS6_EEEC2B8ue170006IDnNS_18__default_init_tagEEEOT_OT0_, symObjAddr: 0x3CEC, symBinAddr: 0x1000057C4, symSize: 0x40 }
  - { offsetInCU: 0x1934E, offset: 0x1934E, size: 0x8, addend: 0x0, symName: __ZNSt3__122__compressed_pair_elemIPNS_4pairINS_4__fs10filesystem4pathENS3_11file_statusEEELi0ELb0EEC2B8ue170006IDnvEEOT_, symObjAddr: 0x3D2C, symBinAddr: 0x100005804, symSize: 0x1C }
  - { offsetInCU: 0x19390, offset: 0x19390, size: 0x8, addend: 0x0, symName: __ZNSt3__122__compressed_pair_elemINS_9allocatorINS_4pairINS_4__fs10filesystem4pathENS4_11file_statusEEEEELi1ELb1EEC2B8ue170006ENS_18__default_init_tagE, symObjAddr: 0x3D48, symBinAddr: 0x100005820, symSize: 0x2C }
  - { offsetInCU: 0x193C4, offset: 0x193C4, size: 0x8, addend: 0x0, symName: __ZNSt3__19allocatorINS_4pairINS_4__fs10filesystem4pathENS3_11file_statusEEEEC2B8ue170006Ev, symObjAddr: 0x3D74, symBinAddr: 0x10000584C, symSize: 0x2C }
  - { offsetInCU: 0x193EE, offset: 0x193EE, size: 0x8, addend: 0x0, symName: __ZNSt3__116__non_trivial_ifILb1ENS_9allocatorINS_4pairINS_4__fs10filesystem4pathENS4_11file_statusEEEEEEC2B8ue170006Ev, symObjAddr: 0x3DA0, symBinAddr: 0x100005878, symSize: 0x14 }
  - { offsetInCU: 0x19418, offset: 0x19418, size: 0x8, addend: 0x0, symName: __ZNSt3__16vectorINS_4pairINS_4__fs10filesystem4pathENS3_11file_statusEEENS_9allocatorIS6_EEED2B8ue170006Ev, symObjAddr: 0x3DB4, symBinAddr: 0x10000588C, symSize: 0x44 }
  - { offsetInCU: 0x19442, offset: 0x19442, size: 0x8, addend: 0x0, symName: __ZNSt3__16vectorINS_4pairINS_4__fs10filesystem4pathENS3_11file_statusEEENS_9allocatorIS6_EEE16__destroy_vectorC1B8ue170006ERS9_, symObjAddr: 0x3DF8, symBinAddr: 0x1000058D0, symSize: 0x34 }
  - { offsetInCU: 0x1947B, offset: 0x1947B, size: 0x8, addend: 0x0, symName: __ZNSt3__16vectorINS_4pairINS_4__fs10filesystem4pathENS3_11file_statusEEENS_9allocatorIS6_EEE16__destroy_vectorclB8ue170006Ev, symObjAddr: 0x3E2C, symBinAddr: 0x100005904, symSize: 0x90 }
  - { offsetInCU: 0x194A1, offset: 0x194A1, size: 0x8, addend: 0x0, symName: __ZNSt3__16vectorINS_4pairINS_4__fs10filesystem4pathENS3_11file_statusEEENS_9allocatorIS6_EEE16__destroy_vectorC2B8ue170006ERS9_, symObjAddr: 0x3EBC, symBinAddr: 0x100005994, symSize: 0x20 }
  - { offsetInCU: 0x194DA, offset: 0x194DA, size: 0x8, addend: 0x0, symName: __ZNSt3__16vectorINS_4pairINS_4__fs10filesystem4pathENS3_11file_statusEEENS_9allocatorIS6_EEE7__clearB8ue170006Ev, symObjAddr: 0x3EDC, symBinAddr: 0x1000059B4, symSize: 0x28 }
  - { offsetInCU: 0x19500, offset: 0x19500, size: 0x8, addend: 0x0, symName: __ZNKSt3__16vectorINS_4pairINS_4__fs10filesystem4pathENS3_11file_statusEEENS_9allocatorIS6_EEE17__annotate_deleteB8ue170006Ev, symObjAddr: 0x3F04, symBinAddr: 0x1000059DC, symSize: 0xB8 }
  - { offsetInCU: 0x19526, offset: 0x19526, size: 0x8, addend: 0x0, symName: __ZNSt3__116allocator_traitsINS_9allocatorINS_4pairINS_4__fs10filesystem4pathENS4_11file_statusEEEEEE10deallocateB8ue170006ERS8_PS7_m, symObjAddr: 0x3FBC, symBinAddr: 0x100005A94, symSize: 0x34 }
  - { offsetInCU: 0x19568, offset: 0x19568, size: 0x8, addend: 0x0, symName: __ZNSt3__16vectorINS_4pairINS_4__fs10filesystem4pathENS3_11file_statusEEENS_9allocatorIS6_EEE7__allocB8ue170006Ev, symObjAddr: 0x3FF0, symBinAddr: 0x100005AC8, symSize: 0x28 }
  - { offsetInCU: 0x1958E, offset: 0x1958E, size: 0x8, addend: 0x0, symName: __ZNKSt3__16vectorINS_4pairINS_4__fs10filesystem4pathENS3_11file_statusEEENS_9allocatorIS6_EEE8capacityB8ue170006Ev, symObjAddr: 0x4018, symBinAddr: 0x100005AF0, symSize: 0x40 }
  - { offsetInCU: 0x195B4, offset: 0x195B4, size: 0x8, addend: 0x0, symName: __ZNSt3__16vectorINS_4pairINS_4__fs10filesystem4pathENS3_11file_statusEEENS_9allocatorIS6_EEE22__base_destruct_at_endB8ue170006EPS6_, symObjAddr: 0x4058, symBinAddr: 0x100005B30, symSize: 0x8C }
  - { offsetInCU: 0x195F8, offset: 0x195F8, size: 0x8, addend: 0x0, symName: __ZNSt3__116allocator_traitsINS_9allocatorINS_4pairINS_4__fs10filesystem4pathENS4_11file_statusEEEEEE7destroyB8ue170006IS7_vEEvRS8_PT_, symObjAddr: 0x40E4, symBinAddr: 0x100005BBC, symSize: 0x2C }
  - { offsetInCU: 0x19635, offset: 0x19635, size: 0x8, addend: 0x0, symName: __ZNSt3__19allocatorINS_4pairINS_4__fs10filesystem4pathENS3_11file_statusEEEE7destroyB8ue170006EPS6_, symObjAddr: 0x4124, symBinAddr: 0x100005BFC, symSize: 0x28 }
  - { offsetInCU: 0x19669, offset: 0x19669, size: 0x8, addend: 0x0, symName: __ZNKSt3__16vectorINS_4pairINS_4__fs10filesystem4pathENS3_11file_statusEEENS_9allocatorIS6_EEE31__annotate_contiguous_containerB8ue170006EPKvSB_SB_SB_, symObjAddr: 0x414C, symBinAddr: 0x100005C24, symSize: 0x20 }
  - { offsetInCU: 0x196BF, offset: 0x196BF, size: 0x8, addend: 0x0, symName: __ZNKSt3__16vectorINS_4pairINS_4__fs10filesystem4pathENS3_11file_statusEEENS_9allocatorIS6_EEE4dataB8ue170006Ev, symObjAddr: 0x416C, symBinAddr: 0x100005C44, symSize: 0x28 }
  - { offsetInCU: 0x196E5, offset: 0x196E5, size: 0x8, addend: 0x0, symName: __ZNKSt3__16vectorINS_4pairINS_4__fs10filesystem4pathENS3_11file_statusEEENS_9allocatorIS6_EEE4sizeB8ue170006Ev, symObjAddr: 0x4194, symBinAddr: 0x100005C6C, symSize: 0x28 }
  - { offsetInCU: 0x1970B, offset: 0x1970B, size: 0x8, addend: 0x0, symName: __ZNSt3__19allocatorINS_4pairINS_4__fs10filesystem4pathENS3_11file_statusEEEE10deallocateB8ue170006EPS6_m, symObjAddr: 0x41BC, symBinAddr: 0x100005C94, symSize: 0x40 }
  - { offsetInCU: 0x1974D, offset: 0x1974D, size: 0x8, addend: 0x0, symName: __ZNSt3__117__compressed_pairIPNS_4pairINS_4__fs10filesystem4pathENS3_11file_statusEEENS_9allocatorIS6_EEE6secondB8ue170006Ev, symObjAddr: 0x4304, symBinAddr: 0x100005DDC, symSize: 0x24 }
  - { offsetInCU: 0x19773, offset: 0x19773, size: 0x8, addend: 0x0, symName: __ZNSt3__122__compressed_pair_elemINS_9allocatorINS_4pairINS_4__fs10filesystem4pathENS4_11file_statusEEEEELi1ELb1EE5__getB8ue170006Ev, symObjAddr: 0x4328, symBinAddr: 0x100005E00, symSize: 0x14 }
  - { offsetInCU: 0x19799, offset: 0x19799, size: 0x8, addend: 0x0, symName: __ZNKSt3__16vectorINS_4pairINS_4__fs10filesystem4pathENS3_11file_statusEEENS_9allocatorIS6_EEE9__end_capB8ue170006Ev, symObjAddr: 0x433C, symBinAddr: 0x100005E14, symSize: 0x28 }
  - { offsetInCU: 0x197BF, offset: 0x197BF, size: 0x8, addend: 0x0, symName: __ZNKSt3__117__compressed_pairIPNS_4pairINS_4__fs10filesystem4pathENS3_11file_statusEEENS_9allocatorIS6_EEE5firstB8ue170006Ev, symObjAddr: 0x4364, symBinAddr: 0x100005E3C, symSize: 0x24 }
  - { offsetInCU: 0x197E5, offset: 0x197E5, size: 0x8, addend: 0x0, symName: __ZNKSt3__122__compressed_pair_elemIPNS_4pairINS_4__fs10filesystem4pathENS3_11file_statusEEELi0ELb0EE5__getB8ue170006Ev, symObjAddr: 0x4388, symBinAddr: 0x100005E60, symSize: 0x14 }
  - { offsetInCU: 0x1980B, offset: 0x1980B, size: 0x8, addend: 0x0, symName: __ZNSt3__112basic_stringIcNS_11char_traitsIcEENS_9allocatorIcEEEC2B8ue170006Emc, symObjAddr: 0x439C, symBinAddr: 0x100005E74, symSize: 0x4C }
  - { offsetInCU: 0x19876, offset: 0x19876, size: 0x8, addend: 0x0, symName: __ZNKSt3__113basic_ostreamIcNS_11char_traitsIcEEE6sentrycvbB8ue170006Ev, symObjAddr: 0x45D4, symBinAddr: 0x1000060AC, symSize: 0x1C }
  - { offsetInCU: 0x1989C, offset: 0x1989C, size: 0x8, addend: 0x0, symName: __ZNSt3__119ostreambuf_iteratorIcNS_11char_traitsIcEEEC1B8ue170006ERNS_13basic_ostreamIcS2_EE, symObjAddr: 0x4830, symBinAddr: 0x100006308, symSize: 0x34 }
  - { offsetInCU: 0x198D4, offset: 0x198D4, size: 0x8, addend: 0x0, symName: __ZNKSt3__18ios_base5flagsB8ue170006Ev, symObjAddr: 0x4864, symBinAddr: 0x10000633C, symSize: 0x18 }
  - { offsetInCU: 0x198FC, offset: 0x198FC, size: 0x8, addend: 0x0, symName: __ZNKSt3__19basic_iosIcNS_11char_traitsIcEEE4fillB8ue170006Ev, symObjAddr: 0x487C, symBinAddr: 0x100006354, symSize: 0x64 }
  - { offsetInCU: 0x19924, offset: 0x19924, size: 0x8, addend: 0x0, symName: __ZNKSt3__119ostreambuf_iteratorIcNS_11char_traitsIcEEE6failedB8ue170006Ev, symObjAddr: 0x48E0, symBinAddr: 0x1000063B8, symSize: 0x24 }
  - { offsetInCU: 0x1994A, offset: 0x1994A, size: 0x8, addend: 0x0, symName: __ZNSt3__19basic_iosIcNS_11char_traitsIcEEE8setstateB8ue170006Ej, symObjAddr: 0x4904, symBinAddr: 0x1000063DC, symSize: 0x2C }
  - { offsetInCU: 0x1997F, offset: 0x1997F, size: 0x8, addend: 0x0, symName: __ZNKSt3__18ios_base5widthB8ue170006Ev, symObjAddr: 0x4930, symBinAddr: 0x100006408, symSize: 0x18 }
  - { offsetInCU: 0x199A7, offset: 0x199A7, size: 0x8, addend: 0x0, symName: __ZNSt3__115basic_streambufIcNS_11char_traitsIcEEE5sputnB8ue170006EPKcl, symObjAddr: 0x4948, symBinAddr: 0x100006420, symSize: 0x3C }
  - { offsetInCU: 0x199E9, offset: 0x199E9, size: 0x8, addend: 0x0, symName: __ZNSt3__112basic_stringIcNS_11char_traitsIcEENS_9allocatorIcEEE4dataB8ue170006Ev, symObjAddr: 0x4984, symBinAddr: 0x10000645C, symSize: 0x28 }
  - { offsetInCU: 0x19A0F, offset: 0x19A0F, size: 0x8, addend: 0x0, symName: __ZNSt3__18ios_base5widthB8ue170006El, symObjAddr: 0x49AC, symBinAddr: 0x100006484, symSize: 0x2C }
  - { offsetInCU: 0x19A55, offset: 0x19A55, size: 0x8, addend: 0x0, symName: __ZNSt3__119ostreambuf_iteratorIcNS_11char_traitsIcEEEC2B8ue170006ERNS_13basic_ostreamIcS2_EE, symObjAddr: 0x49EC, symBinAddr: 0x1000064C4, symSize: 0x54 }
  - { offsetInCU: 0x19A8D, offset: 0x19A8D, size: 0x8, addend: 0x0, symName: __ZNKSt3__19basic_iosIcNS_11char_traitsIcEEE5rdbufB8ue170006Ev, symObjAddr: 0x4A40, symBinAddr: 0x100006518, symSize: 0x24 }
  - { offsetInCU: 0x19AB5, offset: 0x19AB5, size: 0x8, addend: 0x0, symName: __ZNKSt3__18ios_base5rdbufB8ue170006Ev, symObjAddr: 0x4A64, symBinAddr: 0x10000653C, symSize: 0x18 }
  - { offsetInCU: 0x19ADB, offset: 0x19ADB, size: 0x8, addend: 0x0, symName: __ZNSt3__111char_traitsIcE11eq_int_typeB8ue170006Eii, symObjAddr: 0x4A7C, symBinAddr: 0x100006554, symSize: 0x28 }
  - { offsetInCU: 0x19B0E, offset: 0x19B0E, size: 0x8, addend: 0x0, symName: __ZNSt3__111char_traitsIcE3eofB8ue170006Ev, symObjAddr: 0x4AA4, symBinAddr: 0x10000657C, symSize: 0x8 }
  - { offsetInCU: 0x19B22, offset: 0x19B22, size: 0x8, addend: 0x0, symName: __ZNKSt3__19basic_iosIcNS_11char_traitsIcEEE5widenB8ue170006Ec, symObjAddr: 0x4AAC, symBinAddr: 0x100006584, symSize: 0x84 }
  - { offsetInCU: 0x19B97, offset: 0x19B97, size: 0x8, addend: 0x0, symName: __ZNKSt3__15ctypeIcE5widenB8ue170006Ec, symObjAddr: 0x4B5C, symBinAddr: 0x100006634, symSize: 0x38 }
  - { offsetInCU: 0x19BCC, offset: 0x19BCC, size: 0x8, addend: 0x0, symName: __ZNSt3__18ios_base8setstateB8ue170006Ej, symObjAddr: 0x4B94, symBinAddr: 0x10000666C, symSize: 0x34 }
  - { offsetInCU: 0x19C03, offset: 0x19C03, size: 0x8, addend: 0x0, symName: __ZNSt3__16vectorINS_4pairINS_4__fs10filesystem4pathENS3_11file_statusEEENS_9allocatorIS6_EEE9__end_capB8ue170006Ev, symObjAddr: 0x4BC8, symBinAddr: 0x1000066A0, symSize: 0x28 }
  - { offsetInCU: 0x19C29, offset: 0x19C29, size: 0x8, addend: 0x0, symName: __ZNSt3__16vectorINS_4pairINS_4__fs10filesystem4pathENS3_11file_statusEEENS_9allocatorIS6_EEE22__construct_one_at_endB8ue170006IJS6_EEEvDpOT_, symObjAddr: 0x4BF0, symBinAddr: 0x1000066C8, symSize: 0x90 }
  - { offsetInCU: 0x19C78, offset: 0x19C78, size: 0x8, addend: 0x0, symName: __ZNSt3__16vectorINS_4pairINS_4__fs10filesystem4pathENS3_11file_statusEEENS_9allocatorIS6_EEE21__push_back_slow_pathIS6_EEvOT_, symObjAddr: 0x4C80, symBinAddr: 0x100006758, symSize: 0xD8 }
  - { offsetInCU: 0x19CD6, offset: 0x19CD6, size: 0x8, addend: 0x0, symName: __ZNSt3__117__compressed_pairIPNS_4pairINS_4__fs10filesystem4pathENS3_11file_statusEEENS_9allocatorIS6_EEE5firstB8ue170006Ev, symObjAddr: 0x4D58, symBinAddr: 0x100006830, symSize: 0x24 }
  - { offsetInCU: 0x19CFC, offset: 0x19CFC, size: 0x8, addend: 0x0, symName: __ZNSt3__122__compressed_pair_elemIPNS_4pairINS_4__fs10filesystem4pathENS3_11file_statusEEELi0ELb0EE5__getB8ue170006Ev, symObjAddr: 0x4D7C, symBinAddr: 0x100006854, symSize: 0x14 }
  - { offsetInCU: 0x19D3E, offset: 0x19D3E, size: 0x8, addend: 0x0, symName: __ZNSt3__16vectorINS_4pairINS_4__fs10filesystem4pathENS3_11file_statusEEENS_9allocatorIS6_EEE21_ConstructTransactionC1B8ue170006ERS9_m, symObjAddr: 0x4D90, symBinAddr: 0x100006868, symSize: 0x3C }
  - { offsetInCU: 0x19D86, offset: 0x19D86, size: 0x8, addend: 0x0, symName: __ZNSt3__116allocator_traitsINS_9allocatorINS_4pairINS_4__fs10filesystem4pathENS4_11file_statusEEEEEE9constructB8ue170006IS7_JS7_EvEEvRS8_PT_DpOT0_, symObjAddr: 0x4DCC, symBinAddr: 0x1000068A4, symSize: 0x34 }
  - { offsetInCU: 0x19DDD, offset: 0x19DDD, size: 0x8, addend: 0x0, symName: __ZNSt3__16vectorINS_4pairINS_4__fs10filesystem4pathENS3_11file_statusEEENS_9allocatorIS6_EEE21_ConstructTransactionD1B8ue170006Ev, symObjAddr: 0x4E00, symBinAddr: 0x1000068D8, symSize: 0x2C }
  - { offsetInCU: 0x19E07, offset: 0x19E07, size: 0x8, addend: 0x0, symName: __ZNSt3__16vectorINS_4pairINS_4__fs10filesystem4pathENS3_11file_statusEEENS_9allocatorIS6_EEE21_ConstructTransactionC2B8ue170006ERS9_m, symObjAddr: 0x4E2C, symBinAddr: 0x100006904, symSize: 0x44 }
  - { offsetInCU: 0x19E4F, offset: 0x19E4F, size: 0x8, addend: 0x0, symName: __ZNSt3__19allocatorINS_4pairINS_4__fs10filesystem4pathENS3_11file_statusEEEE9constructB8ue170006IS6_JS6_EEEvPT_DpOT0_, symObjAddr: 0x4E70, symBinAddr: 0x100006948, symSize: 0x30 }
  - { offsetInCU: 0x19EA5, offset: 0x19EA5, size: 0x8, addend: 0x0, symName: __ZNSt3__14pairINS_4__fs10filesystem4pathENS2_11file_statusEEC1B8ue170006EOS5_, symObjAddr: 0x4EA0, symBinAddr: 0x100006978, symSize: 0x34 }
  - { offsetInCU: 0x19ED9, offset: 0x19ED9, size: 0x8, addend: 0x0, symName: __ZNSt3__14pairINS_4__fs10filesystem4pathENS2_11file_statusEEC2B8ue170006EOS5_, symObjAddr: 0x4ED4, symBinAddr: 0x1000069AC, symSize: 0x40 }
  - { offsetInCU: 0x19F0D, offset: 0x19F0D, size: 0x8, addend: 0x0, symName: __ZNSt3__14__fs10filesystem4pathC1B8ue170006EOS2_, symObjAddr: 0x4F14, symBinAddr: 0x1000069EC, symSize: 0x34 }
  - { offsetInCU: 0x19F46, offset: 0x19F46, size: 0x8, addend: 0x0, symName: __ZNSt3__14__fs10filesystem4pathC2B8ue170006EOS2_, symObjAddr: 0x4F48, symBinAddr: 0x100006A20, symSize: 0x34 }
  - { offsetInCU: 0x19F7F, offset: 0x19F7F, size: 0x8, addend: 0x0, symName: __ZNSt3__16vectorINS_4pairINS_4__fs10filesystem4pathENS3_11file_statusEEENS_9allocatorIS6_EEE21_ConstructTransactionD2B8ue170006Ev, symObjAddr: 0x4F7C, symBinAddr: 0x100006A54, symSize: 0x20 }
  - { offsetInCU: 0x19FA9, offset: 0x19FA9, size: 0x8, addend: 0x0, symName: __ZNKSt3__16vectorINS_4pairINS_4__fs10filesystem4pathENS3_11file_statusEEENS_9allocatorIS6_EEE11__recommendB8ue170006Em, symObjAddr: 0x4F9C, symBinAddr: 0x100006A74, symSize: 0xB4 }
  - { offsetInCU: 0x19FFE, offset: 0x19FFE, size: 0x8, addend: 0x0, symName: __ZNSt3__114__split_bufferINS_4pairINS_4__fs10filesystem4pathENS3_11file_statusEEERNS_9allocatorIS6_EEEC1EmmS9_, symObjAddr: 0x5050, symBinAddr: 0x100006B28, symSize: 0x44 }
  - { offsetInCU: 0x1A054, offset: 0x1A054, size: 0x8, addend: 0x0, symName: __ZNSt3__114__split_bufferINS_4pairINS_4__fs10filesystem4pathENS3_11file_statusEEERNS_9allocatorIS6_EEED1Ev, symObjAddr: 0x51A4, symBinAddr: 0x100006C7C, symSize: 0x2C }
  - { offsetInCU: 0x1A080, offset: 0x1A080, size: 0x8, addend: 0x0, symName: __ZNKSt3__16vectorINS_4pairINS_4__fs10filesystem4pathENS3_11file_statusEEENS_9allocatorIS6_EEE8max_sizeEv, symObjAddr: 0x51D0, symBinAddr: 0x100006CA8, symSize: 0x60 }
  - { offsetInCU: 0x1A0A8, offset: 0x1A0A8, size: 0x8, addend: 0x0, symName: __ZNKSt3__16vectorINS_4pairINS_4__fs10filesystem4pathENS3_11file_statusEEENS_9allocatorIS6_EEE20__throw_length_errorB8ue170006Ev, symObjAddr: 0x5230, symBinAddr: 0x100006D08, symSize: 0x1C }
  - { offsetInCU: 0x1A0D9, offset: 0x1A0D9, size: 0x8, addend: 0x0, symName: __ZNSt3__116allocator_traitsINS_9allocatorINS_4pairINS_4__fs10filesystem4pathENS4_11file_statusEEEEEE8max_sizeB8ue170006IS8_vEEmRKS8_, symObjAddr: 0x52A4, symBinAddr: 0x100006D7C, symSize: 0x24 }
  - { offsetInCU: 0x1A107, offset: 0x1A107, size: 0x8, addend: 0x0, symName: __ZNKSt3__16vectorINS_4pairINS_4__fs10filesystem4pathENS3_11file_statusEEENS_9allocatorIS6_EEE7__allocB8ue170006Ev, symObjAddr: 0x52C8, symBinAddr: 0x100006DA0, symSize: 0x28 }
  - { offsetInCU: 0x1A12D, offset: 0x1A12D, size: 0x8, addend: 0x0, symName: __ZNSt3__114numeric_limitsIlE3maxB8ue170006Ev, symObjAddr: 0x52F0, symBinAddr: 0x100006DC8, symSize: 0x14 }
  - { offsetInCU: 0x1A14C, offset: 0x1A14C, size: 0x8, addend: 0x0, symName: __ZNKSt3__16__lessIvvEclB8ue170006ImmEEbRKT_RKT0_, symObjAddr: 0x5358, symBinAddr: 0x100006E30, symSize: 0x34 }
  - { offsetInCU: 0x1A1A0, offset: 0x1A1A0, size: 0x8, addend: 0x0, symName: __ZNKSt3__19allocatorINS_4pairINS_4__fs10filesystem4pathENS3_11file_statusEEEE8max_sizeB8ue170006Ev, symObjAddr: 0x538C, symBinAddr: 0x100006E64, symSize: 0x14 }
  - { offsetInCU: 0x1A1C6, offset: 0x1A1C6, size: 0x8, addend: 0x0, symName: __ZNKSt3__117__compressed_pairIPNS_4pairINS_4__fs10filesystem4pathENS3_11file_statusEEENS_9allocatorIS6_EEE6secondB8ue170006Ev, symObjAddr: 0x53A0, symBinAddr: 0x100006E78, symSize: 0x24 }
  - { offsetInCU: 0x1A1EC, offset: 0x1A1EC, size: 0x8, addend: 0x0, symName: __ZNKSt3__122__compressed_pair_elemINS_9allocatorINS_4pairINS_4__fs10filesystem4pathENS4_11file_statusEEEEELi1ELb1EE5__getB8ue170006Ev, symObjAddr: 0x53C4, symBinAddr: 0x100006E9C, symSize: 0x14 }
  - { offsetInCU: 0x1A212, offset: 0x1A212, size: 0x8, addend: 0x0, symName: __ZNSt3__123__libcpp_numeric_limitsIlLb1EE3maxB8ue170006Ev, symObjAddr: 0x53D8, symBinAddr: 0x100006EB0, symSize: 0x8 }
  - { offsetInCU: 0x1A226, offset: 0x1A226, size: 0x8, addend: 0x0, symName: __ZNSt3__114__split_bufferINS_4pairINS_4__fs10filesystem4pathENS3_11file_statusEEERNS_9allocatorIS6_EEEC2EmmS9_, symObjAddr: 0x5434, symBinAddr: 0x100006F0C, symSize: 0xD4 }
  - { offsetInCU: 0x1A299, offset: 0x1A299, size: 0x8, addend: 0x0, symName: __ZNSt3__117__compressed_pairIPNS_4pairINS_4__fs10filesystem4pathENS3_11file_statusEEERNS_9allocatorIS6_EEEC1B8ue170006IDnSA_EEOT_OT0_, symObjAddr: 0x5508, symBinAddr: 0x100006FE0, symSize: 0x3C }
  - { offsetInCU: 0x1A2F1, offset: 0x1A2F1, size: 0x8, addend: 0x0, symName: __ZNSt3__114__split_bufferINS_4pairINS_4__fs10filesystem4pathENS3_11file_statusEEERNS_9allocatorIS6_EEE7__allocB8ue170006Ev, symObjAddr: 0x5584, symBinAddr: 0x10000705C, symSize: 0x28 }
  - { offsetInCU: 0x1A317, offset: 0x1A317, size: 0x8, addend: 0x0, symName: __ZNSt3__114__split_bufferINS_4pairINS_4__fs10filesystem4pathENS3_11file_statusEEERNS_9allocatorIS6_EEE9__end_capB8ue170006Ev, symObjAddr: 0x55AC, symBinAddr: 0x100007084, symSize: 0x28 }
  - { offsetInCU: 0x1A33D, offset: 0x1A33D, size: 0x8, addend: 0x0, symName: __ZNSt3__117__compressed_pairIPNS_4pairINS_4__fs10filesystem4pathENS3_11file_statusEEERNS_9allocatorIS6_EEEC2B8ue170006IDnSA_EEOT_OT0_, symObjAddr: 0x55D4, symBinAddr: 0x1000070AC, symSize: 0x48 }
  - { offsetInCU: 0x1A395, offset: 0x1A395, size: 0x8, addend: 0x0, symName: __ZNSt3__122__compressed_pair_elemIRNS_9allocatorINS_4pairINS_4__fs10filesystem4pathENS4_11file_statusEEEEELi1ELb0EEC2B8ue170006IS9_vEEOT_, symObjAddr: 0x561C, symBinAddr: 0x1000070F4, symSize: 0x20 }
  - { offsetInCU: 0x1A3D7, offset: 0x1A3D7, size: 0x8, addend: 0x0, symName: __ZNSt3__19allocatorINS_4pairINS_4__fs10filesystem4pathENS3_11file_statusEEEE8allocateB8ue170006Em, symObjAddr: 0x563C, symBinAddr: 0x100007114, symSize: 0x58 }
  - { offsetInCU: 0x1A40B, offset: 0x1A40B, size: 0x8, addend: 0x0, symName: __ZNSt3__117__compressed_pairIPNS_4pairINS_4__fs10filesystem4pathENS3_11file_statusEEERNS_9allocatorIS6_EEE6secondB8ue170006Ev, symObjAddr: 0x5694, symBinAddr: 0x10000716C, symSize: 0x28 }
  - { offsetInCU: 0x1A431, offset: 0x1A431, size: 0x8, addend: 0x0, symName: __ZNSt3__122__compressed_pair_elemIRNS_9allocatorINS_4pairINS_4__fs10filesystem4pathENS4_11file_statusEEEEELi1ELb0EE5__getB8ue170006Ev, symObjAddr: 0x56BC, symBinAddr: 0x100007194, symSize: 0x18 }
  - { offsetInCU: 0x1A457, offset: 0x1A457, size: 0x8, addend: 0x0, symName: __ZNSt3__117__compressed_pairIPNS_4pairINS_4__fs10filesystem4pathENS3_11file_statusEEERNS_9allocatorIS6_EEE5firstB8ue170006Ev, symObjAddr: 0x56D4, symBinAddr: 0x1000071AC, symSize: 0x24 }
  - { offsetInCU: 0x1A47D, offset: 0x1A47D, size: 0x8, addend: 0x0, symName: __ZNSt3__116reverse_iteratorIPNS_4pairINS_4__fs10filesystem4pathENS3_11file_statusEEEEC1B8ue170006ES7_, symObjAddr: 0x5824, symBinAddr: 0x1000072FC, symSize: 0x34 }
  - { offsetInCU: 0x1A4B5, offset: 0x1A4B5, size: 0x8, addend: 0x0, symName: __ZNKSt3__116reverse_iteratorIPNS_4pairINS_4__fs10filesystem4pathENS3_11file_statusEEEE4baseB8ue170006Ev, symObjAddr: 0x5858, symBinAddr: 0x100007330, symSize: 0x18 }
  - { offsetInCU: 0x1A4DB, offset: 0x1A4DB, size: 0x8, addend: 0x0, symName: __ZNKSt3__16vectorINS_4pairINS_4__fs10filesystem4pathENS3_11file_statusEEENS_9allocatorIS6_EEE14__annotate_newB8ue170006Em, symObjAddr: 0x58AC, symBinAddr: 0x100007384, symSize: 0xAC }
  - { offsetInCU: 0x1A510, offset: 0x1A510, size: 0x8, addend: 0x0, symName: __ZNSt3__129_AllocatorDestroyRangeReverseINS_9allocatorINS_4pairINS_4__fs10filesystem4pathENS4_11file_statusEEEEENS_16reverse_iteratorIPS7_EEEC1B8ue170006ERS8_RSB_SE_, symObjAddr: 0x59A4, symBinAddr: 0x10000747C, symSize: 0x44 }
  - { offsetInCU: 0x1A567, offset: 0x1A567, size: 0x8, addend: 0x0, symName: __ZNKSt3__116reverse_iteratorIPNS_4pairINS_4__fs10filesystem4pathENS3_11file_statusEEEEdeB8ue170006Ev, symObjAddr: 0x5A54, symBinAddr: 0x10000752C, symSize: 0x28 }
  - { offsetInCU: 0x1A59B, offset: 0x1A59B, size: 0x8, addend: 0x0, symName: __ZNSt3__116reverse_iteratorIPNS_4pairINS_4__fs10filesystem4pathENS3_11file_statusEEEEppB8ue170006Ev, symObjAddr: 0x5A7C, symBinAddr: 0x100007554, symSize: 0x20 }
  - { offsetInCU: 0x1A5C1, offset: 0x1A5C1, size: 0x8, addend: 0x0, symName: __ZNSt3__128__exception_guard_exceptionsINS_29_AllocatorDestroyRangeReverseINS_9allocatorINS_4pairINS_4__fs10filesystem4pathENS5_11file_statusEEEEENS_16reverse_iteratorIPS8_EEEEE10__completeB8ue170006Ev, symObjAddr: 0x5A9C, symBinAddr: 0x100007574, symSize: 0x1C }
  - { offsetInCU: 0x1A5E7, offset: 0x1A5E7, size: 0x8, addend: 0x0, symName: __ZNSt3__128__exception_guard_exceptionsINS_29_AllocatorDestroyRangeReverseINS_9allocatorINS_4pairINS_4__fs10filesystem4pathENS5_11file_statusEEEEENS_16reverse_iteratorIPS8_EEEEED1B8ue170006Ev, symObjAddr: 0x5AB8, symBinAddr: 0x100007590, symSize: 0x2C }
  - { offsetInCU: 0x1A611, offset: 0x1A611, size: 0x8, addend: 0x0, symName: __ZNSt3__128__exception_guard_exceptionsINS_29_AllocatorDestroyRangeReverseINS_9allocatorINS_4pairINS_4__fs10filesystem4pathENS5_11file_statusEEEEENS_16reverse_iteratorIPS8_EEEEEC1B8ue170006ESD_, symObjAddr: 0x5AE4, symBinAddr: 0x1000075BC, symSize: 0x34 }
  - { offsetInCU: 0x1A64A, offset: 0x1A64A, size: 0x8, addend: 0x0, symName: __ZNSt3__128__exception_guard_exceptionsINS_29_AllocatorDestroyRangeReverseINS_9allocatorINS_4pairINS_4__fs10filesystem4pathENS5_11file_statusEEEEENS_16reverse_iteratorIPS8_EEEEEC2B8ue170006ESD_, symObjAddr: 0x5B18, symBinAddr: 0x1000075F0, symSize: 0x30 }
  - { offsetInCU: 0x1A683, offset: 0x1A683, size: 0x8, addend: 0x0, symName: __ZNSt3__129_AllocatorDestroyRangeReverseINS_9allocatorINS_4pairINS_4__fs10filesystem4pathENS4_11file_statusEEEEENS_16reverse_iteratorIPS7_EEEC2B8ue170006ERS8_RSB_SE_, symObjAddr: 0x5B48, symBinAddr: 0x100007620, symSize: 0x38 }
  - { offsetInCU: 0x1A6E0, offset: 0x1A6E0, size: 0x8, addend: 0x0, symName: __ZNSt3__119__to_address_helperINS_16reverse_iteratorIPNS_4pairINS_4__fs10filesystem4pathENS4_11file_statusEEEEEvE6__callB8ue170006ERKS9_, symObjAddr: 0x5B80, symBinAddr: 0x100007658, symSize: 0x38 }
  - { offsetInCU: 0x1A703, offset: 0x1A703, size: 0x8, addend: 0x0, symName: __ZNKSt3__116reverse_iteratorIPNS_4pairINS_4__fs10filesystem4pathENS3_11file_statusEEEEptB8ue170006Ev, symObjAddr: 0x5BB8, symBinAddr: 0x100007690, symSize: 0x24 }
  - { offsetInCU: 0x1A729, offset: 0x1A729, size: 0x8, addend: 0x0, symName: __ZNSt3__128__exception_guard_exceptionsINS_29_AllocatorDestroyRangeReverseINS_9allocatorINS_4pairINS_4__fs10filesystem4pathENS5_11file_statusEEEEENS_16reverse_iteratorIPS8_EEEEED2B8ue170006Ev, symObjAddr: 0x5BDC, symBinAddr: 0x1000076B4, symSize: 0x50 }
  - { offsetInCU: 0x1A753, offset: 0x1A753, size: 0x8, addend: 0x0, symName: __ZNKSt3__129_AllocatorDestroyRangeReverseINS_9allocatorINS_4pairINS_4__fs10filesystem4pathENS4_11file_statusEEEEENS_16reverse_iteratorIPS7_EEEclB8ue170006Ev, symObjAddr: 0x5C2C, symBinAddr: 0x100007704, symSize: 0xB4 }
  - { offsetInCU: 0x1A77A, offset: 0x1A77A, size: 0x8, addend: 0x0, symName: __ZNSt3__116reverse_iteratorINS0_IPNS_4pairINS_4__fs10filesystem4pathENS3_11file_statusEEEEEEC1B8ue170006ES8_, symObjAddr: 0x5D50, symBinAddr: 0x100007828, symSize: 0x3C }
  - { offsetInCU: 0x1A7B2, offset: 0x1A7B2, size: 0x8, addend: 0x0, symName: __ZNSt3__116reverse_iteratorINS0_IPNS_4pairINS_4__fs10filesystem4pathENS3_11file_statusEEEEEEppB8ue170006Ev, symObjAddr: 0x5E10, symBinAddr: 0x1000078E8, symSize: 0x30 }
  - { offsetInCU: 0x1A7D8, offset: 0x1A7D8, size: 0x8, addend: 0x0, symName: __ZNKSt3__116reverse_iteratorINS0_IPNS_4pairINS_4__fs10filesystem4pathENS3_11file_statusEEEEEE4baseB8ue170006Ev, symObjAddr: 0x5E40, symBinAddr: 0x100007918, symSize: 0x24 }
  - { offsetInCU: 0x1A804, offset: 0x1A804, size: 0x8, addend: 0x0, symName: __ZNSt3__119__to_address_helperINS_16reverse_iteratorINS1_IPNS_4pairINS_4__fs10filesystem4pathENS4_11file_statusEEEEEEEvE6__callB8ue170006ERKSA_, symObjAddr: 0x5E64, symBinAddr: 0x10000793C, symSize: 0x38 }
  - { offsetInCU: 0x1A827, offset: 0x1A827, size: 0x8, addend: 0x0, symName: __ZNKSt3__116reverse_iteratorINS0_IPNS_4pairINS_4__fs10filesystem4pathENS3_11file_statusEEEEEEptB8ue170006Ev, symObjAddr: 0x5E9C, symBinAddr: 0x100007974, symSize: 0x24 }
  - { offsetInCU: 0x1A84D, offset: 0x1A84D, size: 0x8, addend: 0x0, symName: __ZNKSt3__116reverse_iteratorINS0_IPNS_4pairINS_4__fs10filesystem4pathENS3_11file_statusEEEEEEdeB8ue170006Ev, symObjAddr: 0x5EC0, symBinAddr: 0x100007998, symSize: 0x34 }
  - { offsetInCU: 0x1A881, offset: 0x1A881, size: 0x8, addend: 0x0, symName: __ZNSt3__116reverse_iteratorIPNS_4pairINS_4__fs10filesystem4pathENS3_11file_statusEEEEmmB8ue170006Ev, symObjAddr: 0x5EF4, symBinAddr: 0x1000079CC, symSize: 0x20 }
  - { offsetInCU: 0x1A8A7, offset: 0x1A8A7, size: 0x8, addend: 0x0, symName: __ZNSt3__116reverse_iteratorINS0_IPNS_4pairINS_4__fs10filesystem4pathENS3_11file_statusEEEEEEC2B8ue170006ES8_, symObjAddr: 0x5F14, symBinAddr: 0x1000079EC, symSize: 0x2C }
  - { offsetInCU: 0x1A8DF, offset: 0x1A8DF, size: 0x8, addend: 0x0, symName: __ZNSt3__116reverse_iteratorIPNS_4pairINS_4__fs10filesystem4pathENS3_11file_statusEEEEC2B8ue170006ES7_, symObjAddr: 0x5F40, symBinAddr: 0x100007A18, symSize: 0x28 }
  - { offsetInCU: 0x1A917, offset: 0x1A917, size: 0x8, addend: 0x0, symName: __ZNSt3__114__split_bufferINS_4pairINS_4__fs10filesystem4pathENS3_11file_statusEEERNS_9allocatorIS6_EEED2Ev, symObjAddr: 0x5F68, symBinAddr: 0x100007A40, symSize: 0x8C }
  - { offsetInCU: 0x1A943, offset: 0x1A943, size: 0x8, addend: 0x0, symName: __ZNSt3__114__split_bufferINS_4pairINS_4__fs10filesystem4pathENS3_11file_statusEEERNS_9allocatorIS6_EEE5clearB8ue170006Ev, symObjAddr: 0x5FF4, symBinAddr: 0x100007ACC, symSize: 0x28 }
  - { offsetInCU: 0x1A969, offset: 0x1A969, size: 0x8, addend: 0x0, symName: __ZNKSt3__114__split_bufferINS_4pairINS_4__fs10filesystem4pathENS3_11file_statusEEERNS_9allocatorIS6_EEE8capacityB8ue170006Ev, symObjAddr: 0x601C, symBinAddr: 0x100007AF4, symSize: 0x40 }
  - { offsetInCU: 0x1A98F, offset: 0x1A98F, size: 0x8, addend: 0x0, symName: __ZNSt3__114__split_bufferINS_4pairINS_4__fs10filesystem4pathENS3_11file_statusEEERNS_9allocatorIS6_EEE17__destruct_at_endB8ue170006EPS6_, symObjAddr: 0x605C, symBinAddr: 0x100007B34, symSize: 0x2C }
  - { offsetInCU: 0x1A9C3, offset: 0x1A9C3, size: 0x8, addend: 0x0, symName: __ZNSt3__114__split_bufferINS_4pairINS_4__fs10filesystem4pathENS3_11file_statusEEERNS_9allocatorIS6_EEE17__destruct_at_endB8ue170006EPS6_NS_17integral_constantIbLb0EEE, symObjAddr: 0x6088, symBinAddr: 0x100007B60, symSize: 0x80 }
  - { offsetInCU: 0x1AA03, offset: 0x1AA03, size: 0x8, addend: 0x0, symName: __ZNKSt3__114__split_bufferINS_4pairINS_4__fs10filesystem4pathENS3_11file_statusEEERNS_9allocatorIS6_EEE9__end_capB8ue170006Ev, symObjAddr: 0x6108, symBinAddr: 0x100007BE0, symSize: 0x28 }
  - { offsetInCU: 0x1AA29, offset: 0x1AA29, size: 0x8, addend: 0x0, symName: __ZNKSt3__117__compressed_pairIPNS_4pairINS_4__fs10filesystem4pathENS3_11file_statusEEERNS_9allocatorIS6_EEE5firstB8ue170006Ev, symObjAddr: 0x6130, symBinAddr: 0x100007C08, symSize: 0x24 }
  - { offsetInCU: 0x1AA4F, offset: 0x1AA4F, size: 0x8, addend: 0x0, symName: __ZNSt3__16vectorINS_4pairINS_4__fs10filesystem4pathENS3_11file_statusEEENS_9allocatorIS6_EEE11__make_iterB8ue170006EPS6_, symObjAddr: 0x6154, symBinAddr: 0x100007C2C, symSize: 0x30 }
  - { offsetInCU: 0x1AA84, offset: 0x1AA84, size: 0x8, addend: 0x0, symName: __ZNSt3__111__wrap_iterIPNS_4pairINS_4__fs10filesystem4pathENS3_11file_statusEEEEC1B8ue170006ES7_, symObjAddr: 0x6184, symBinAddr: 0x100007C5C, symSize: 0x34 }
  - { offsetInCU: 0x1AABC, offset: 0x1AABC, size: 0x8, addend: 0x0, symName: __ZNSt3__111__wrap_iterIPNS_4pairINS_4__fs10filesystem4pathENS3_11file_statusEEEEC2B8ue170006ES7_, symObjAddr: 0x61B8, symBinAddr: 0x100007C90, symSize: 0x20 }
  - { offsetInCU: 0x1AAFF, offset: 0x1AAFF, size: 0x8, addend: 0x0, symName: '__ZZ9PrintTreeRNSt3__113basic_ostreamIcNS_11char_traitsIcEEEERKNS_4__fs10filesystem4pathERKNS6_11file_statusEiENK3$_0clINS_4pairIS7_SA_EESG_EEDaRKT_RKT0_', symObjAddr: 0x67F8, symBinAddr: 0x1000082D0, symSize: 0x88 }
  - { offsetInCU: 0x1AB57, offset: 0x1AB57, size: 0x8, addend: 0x0, symName: __ZNSt3__18_IterOpsINS_17_ClassicAlgPolicyEE9iter_swapB8ue170006IRPNS_4pairINS_4__fs10filesystem4pathENS6_11file_statusEEESB_EEvOT_OT0_, symObjAddr: 0x6880, symBinAddr: 0x100008358, symSize: 0x34 }
  - { offsetInCU: 0x1ABA0, offset: 0x1ABA0, size: 0x8, addend: 0x0, symName: __ZNSt3__18_IterOpsINS_17_ClassicAlgPolicyEE9iter_swapB8ue170006IRPNS_4pairINS_4__fs10filesystem4pathENS6_11file_statusEEESA_EEvOT_OT0_, symObjAddr: 0x6E38, symBinAddr: 0x100008910, symSize: 0x34 }
  - { offsetInCU: 0x1ABE3, offset: 0x1ABE3, size: 0x8, addend: 0x0, symName: __ZNKSt3__112basic_stringIcNS_11char_traitsIcEENS_9allocatorIcEEEcvNS_17basic_string_viewIcS2_EEB8ue170006Ev, symObjAddr: 0x7A78, symBinAddr: 0x100009550, symSize: 0x50 }
  - { offsetInCU: 0x1AC09, offset: 0x1AC09, size: 0x8, addend: 0x0, symName: __ZNSt3__117basic_string_viewIcNS_11char_traitsIcEEEC1B8ue170006EPKcm, symObjAddr: 0x7AC8, symBinAddr: 0x1000095A0, symSize: 0x3C }
  - { offsetInCU: 0x1AC51, offset: 0x1AC51, size: 0x8, addend: 0x0, symName: __ZNSt3__117basic_string_viewIcNS_11char_traitsIcEEEC2B8ue170006EPKcm, symObjAddr: 0x7B04, symBinAddr: 0x1000095DC, symSize: 0x2C }
  - { offsetInCU: 0x1AC99, offset: 0x1AC99, size: 0x8, addend: 0x0, symName: __ZNSt3__14pairINS_4__fs10filesystem4pathENS2_11file_statusEE4swapB8ue170006ERS5_, symObjAddr: 0x7B88, symBinAddr: 0x100009660, symSize: 0x44 }
  - { offsetInCU: 0x1ACCE, offset: 0x1ACCE, size: 0x8, addend: 0x0, symName: __ZNSt3__14__fs10filesystem4path4swapB8ue170006ERS2_, symObjAddr: 0x7C48, symBinAddr: 0x100009720, symSize: 0x2C }
  - { offsetInCU: 0x1AD03, offset: 0x1AD03, size: 0x8, addend: 0x0, symName: __ZNSt3__112basic_stringIcNS_11char_traitsIcEENS_9allocatorIcEEE4swapB8ue170006ERS5_, symObjAddr: 0x7C74, symBinAddr: 0x10000974C, symSize: 0x64 }
  - { offsetInCU: 0x1AD3A, offset: 0x1AD3A, size: 0x8, addend: 0x0, symName: __ZNSt3__18_IterOpsINS_17_ClassicAlgPolicyEE11__iter_moveB8ue170006IRPNS_4pairINS_4__fs10filesystem4pathENS6_11file_statusEEEEENS_9enable_ifIXsr12is_referenceIDTdeclsr3stdE7declvalIRT_EEEEE5valueEDTclsr3stdE4movedeclsr3stdE7declvalISE_EEEEE4typeEOSD_, symObjAddr: 0x7F0C, symBinAddr: 0x1000099E4, symSize: 0x28 }
  - { offsetInCU: 0x1AD66, offset: 0x1AD66, size: 0x8, addend: 0x0, symName: __ZNSt3__14pairINS_4__fs10filesystem4pathENS2_11file_statusEEaSB8ue170006EOS5_, symObjAddr: 0x7F34, symBinAddr: 0x100009A0C, symSize: 0x40 }
  - { offsetInCU: 0x1AD9B, offset: 0x1AD9B, size: 0x8, addend: 0x0, symName: __ZNSt3__18_IterOpsINS_17_ClassicAlgPolicyEE25__validate_iter_referenceB8ue170006IRPNS_4pairINS_4__fs10filesystem4pathENS6_11file_statusEEEEEvv, symObjAddr: 0x7F74, symBinAddr: 0x100009A4C, symSize: 0x4 }
  - { offsetInCU: 0x1ADB9, offset: 0x1ADB9, size: 0x8, addend: 0x0, symName: __ZNSt3__14__fs10filesystem4pathaSB8ue170006EOS2_, symObjAddr: 0x7F78, symBinAddr: 0x100009A50, symSize: 0x34 }
  - { offsetInCU: 0x1ADEE, offset: 0x1ADEE, size: 0x8, addend: 0x0, symName: __ZNSt3__112basic_stringIcNS_11char_traitsIcEENS_9allocatorIcEEEaSB8ue170006EOS5_, symObjAddr: 0x7FAC, symBinAddr: 0x100009A84, symSize: 0x34 }
  - { offsetInCU: 0x1AE23, offset: 0x1AE23, size: 0x8, addend: 0x0, symName: __ZNSt3__112basic_stringIcNS_11char_traitsIcEENS_9allocatorIcEEE13__move_assignB8ue170006ERS5_NS_17integral_constantIbLb1EEE, symObjAddr: 0x7FE0, symBinAddr: 0x100009AB8, symSize: 0xC8 }
  - { offsetInCU: 0x1AE66, offset: 0x1AE66, size: 0x8, addend: 0x0, symName: __ZNSt3__116allocator_traitsINS_9allocatorIcEEE10deallocateB8ue170006ERS2_Pcm, symObjAddr: 0x80A8, symBinAddr: 0x100009B80, symSize: 0x34 }
  - { offsetInCU: 0x1AEA8, offset: 0x1AEA8, size: 0x8, addend: 0x0, symName: __ZNSt3__112basic_stringIcNS_11char_traitsIcEENS_9allocatorIcEEE19__move_assign_allocB8ue170006ERS5_, symObjAddr: 0x80DC, symBinAddr: 0x100009BB4, symSize: 0x2C }
  - { offsetInCU: 0x1AEDD, offset: 0x1AEDD, size: 0x8, addend: 0x0, symName: __ZNSt3__19allocatorIcE10deallocateB8ue170006EPcm, symObjAddr: 0x8108, symBinAddr: 0x100009BE0, symSize: 0x40 }
  - { offsetInCU: 0x1AF1F, offset: 0x1AF1F, size: 0x8, addend: 0x0, symName: __ZNSt3__112basic_stringIcNS_11char_traitsIcEENS_9allocatorIcEEE19__move_assign_allocB8ue170006ERS5_NS_17integral_constantIbLb1EEE, symObjAddr: 0x8148, symBinAddr: 0x100009C20, symSize: 0x38 }
  - { offsetInCU: 0x1AF60, offset: 0x1AF60, size: 0x8, addend: 0x0, symName: __ZNSt3__18_IterOpsINS_17_ClassicAlgPolicyEE4nextB8ue170006IPNS_4pairINS_4__fs10filesystem4pathENS6_11file_statusEEEEET_SB_SB_, symObjAddr: 0x8180, symBinAddr: 0x100009C58, symSize: 0x18 }
  - { offsetInCU: 0x1AF96, offset: 0x1AF96, size: 0x8, addend: 0x0, symName: __ZNSt3__18_IterOpsINS_17_ClassicAlgPolicyEE9iter_swapB8ue170006IPNS_4pairINS_4__fs10filesystem4pathENS6_11file_statusEEESA_EEvOT_OT0_, symObjAddr: 0x9180, symBinAddr: 0x10000AC58, symSize: 0x34 }
  - { offsetInCU: 0x1AFFC, offset: 0x1AFFC, size: 0x8, addend: 0x0, symName: __ZNSt3__14pairIPNS0_INS_4__fs10filesystem4pathENS2_11file_statusEEEbEC1B8ue170006IRS6_RbLPv0EEEOT_OT0_, symObjAddr: 0x91D0, symBinAddr: 0x10000ACA8, symSize: 0x3C }
  - { offsetInCU: 0x1B05A, offset: 0x1B05A, size: 0x8, addend: 0x0, symName: __ZNSt3__14pairIPNS0_INS_4__fs10filesystem4pathENS2_11file_statusEEEbEC2B8ue170006IRS6_RbLPv0EEEOT_OT0_, symObjAddr: 0x920C, symBinAddr: 0x10000ACE4, symSize: 0x38 }
  - { offsetInCU: 0x1B0B8, offset: 0x1B0B8, size: 0x8, addend: 0x0, symName: __ZNSt3__118__unwrap_iter_implINS_11__wrap_iterIPNS_4pairINS_4__fs10filesystem4pathENS4_11file_statusEEEEELb1EE8__unwrapB8ue170006ES9_, symObjAddr: 0x9244, symBinAddr: 0x10000AD1C, symSize: 0x28 }
  - { offsetInCU: 0x1B0E7, offset: 0x1B0E7, size: 0x8, addend: 0x0, symName: __ZNSt3__119__to_address_helperINS_11__wrap_iterIPNS_4pairINS_4__fs10filesystem4pathENS4_11file_statusEEEEEvE6__callB8ue170006ERKS9_, symObjAddr: 0x9290, symBinAddr: 0x10000AD68, symSize: 0x30 }
  - { offsetInCU: 0x1B10A, offset: 0x1B10A, size: 0x8, addend: 0x0, symName: __ZNSt3__114pointer_traitsINS_11__wrap_iterIPNS_4pairINS_4__fs10filesystem4pathENS4_11file_statusEEEEEE10to_addressB8ue170006ES9_, symObjAddr: 0x92C0, symBinAddr: 0x10000AD98, symSize: 0x2C }
  - { offsetInCU: 0x1B12D, offset: 0x1B12D, size: 0x8, addend: 0x0, symName: __ZNSt3__14__fs10filesystem4pathC2B8ue170006IA9_cvEERKT_NS2_6formatE, symObjAddr: 0x92EC, symBinAddr: 0x10000ADC4, symSize: 0x68 }
  - { offsetInCU: 0x1B17C, offset: 0x1B17C, size: 0x8, addend: 0x0, symName: __ZNSt3__14__fs10filesystem8_PathCVTIcE15__append_sourceB8ue170006IA9_cEEvRNS_12basic_stringIcNS_11char_traitsIcEENS_9allocatorIcEEEERKT_, symObjAddr: 0x9354, symBinAddr: 0x10000AE2C, symSize: 0x4C }
  - { offsetInCU: 0x1B1B8, offset: 0x1B1B8, size: 0x8, addend: 0x0, symName: __ZNSt3__14__fs10filesystem24__is_pathable_char_arrayIA9_cPccLb1EE13__range_beginB8ue170006EPKc, symObjAddr: 0x93A0, symBinAddr: 0x10000AE78, symSize: 0x14 }
  - { offsetInCU: 0x1B1DB, offset: 0x1B1DB, size: 0x8, addend: 0x0, symName: __ZNSt3__14__fs10filesystem24__is_pathable_char_arrayIA9_cPccLb1EE11__range_endB8ue170006EPKc, symObjAddr: 0x93B4, symBinAddr: 0x10000AE8C, symSize: 0x50 }
  - { offsetInCU: 0x1B225, offset: 0x1B225, size: 0x8, addend: 0x0, symName: __ZNKSt3__14__fs10filesystem4path5c_strB8ue170006Ev, symObjAddr: 0x9404, symBinAddr: 0x10000AEDC, symSize: 0x24 }
  - { offsetInCU: 0x1B24B, offset: 0x1B24B, size: 0x8, addend: 0x0, symName: __ZNSt3__114basic_ofstreamIcNS_11char_traitsIcEEEC1EPKcj, symObjAddr: 0x9428, symBinAddr: 0x10000AF00, symSize: 0x16C }
  - { offsetInCU: 0x1B295, offset: 0x1B295, size: 0x8, addend: 0x0, symName: __ZNKSt3__112basic_stringIcNS_11char_traitsIcEENS_9allocatorIcEEE5c_strB8ue170006Ev, symObjAddr: 0x9594, symBinAddr: 0x10000B06C, symSize: 0x24 }
  - { offsetInCU: 0x1B2BB, offset: 0x1B2BB, size: 0x8, addend: 0x0, symName: __ZNSt3__19basic_iosIcNS_11char_traitsIcEEEC2B8ue170006Ev, symObjAddr: 0x95B8, symBinAddr: 0x10000B090, symSize: 0x44 }
  - { offsetInCU: 0x1B2E5, offset: 0x1B2E5, size: 0x8, addend: 0x0, symName: __ZNSt3__113basic_ostreamIcNS_11char_traitsIcEEEC2B8ue170006EPNS_15basic_streambufIcS2_EE, symObjAddr: 0x95FC, symBinAddr: 0x10000B0D4, symSize: 0x60 }
  - { offsetInCU: 0x1B32A, offset: 0x1B32A, size: 0x8, addend: 0x0, symName: __ZNSt3__18ios_baseC2B8ue170006Ev, symObjAddr: 0x965C, symBinAddr: 0x10000B134, symSize: 0x24 }
  - { offsetInCU: 0x1B354, offset: 0x1B354, size: 0x8, addend: 0x0, symName: __ZNSt3__19basic_iosIcNS_11char_traitsIcEEE4initB8ue170006EPNS_15basic_streambufIcS2_EE, symObjAddr: 0x9680, symBinAddr: 0x10000B158, symSize: 0x44 }
  - { offsetInCU: 0x1B38B, offset: 0x1B38B, size: 0x8, addend: 0x0, symName: __ZNSt3__115basic_stringbufIcNS_11char_traitsIcEENS_9allocatorIcEEEC1B8ue170006Ej, symObjAddr: 0x96C4, symBinAddr: 0x10000B19C, symSize: 0x34 }
  - { offsetInCU: 0x1B3C4, offset: 0x1B3C4, size: 0x8, addend: 0x0, symName: __ZNSt3__115basic_stringbufIcNS_11char_traitsIcEENS_9allocatorIcEEEC2B8ue170006Ej, symObjAddr: 0x96F8, symBinAddr: 0x10000B1D0, symSize: 0x60 }
  - { offsetInCU: 0x1B3FD, offset: 0x1B3FD, size: 0x8, addend: 0x0, symName: __ZNSt3__111char_traitsIcE7compareB8ue170006EPKcS3_m, symObjAddr: 0x9758, symBinAddr: 0x10000B230, symSize: 0x34 }
...
